---
triple:          'arm64-apple-darwin'
binary-path:     '/Users/steve/Documents/vscode/ABC/json_parser'
relocations:
  - { offset: 0x5C, size: 0x8, addend: 0x0, symName: __ZNSt3__119piecewise_constructE, symObjAddr: 0xEC00, symBinAddr: 0x10000F830, symSize: 0x0 }
  - { offset: 0xBD, size: 0x8, addend: 0x0, symName: __ZNSt3__114in_place_indexILm0EEE, symObjAddr: 0xEC01, symBinAddr: 0x10000F831, symSize: 0x0 }
  - { offset: 0x102, size: 0x8, addend: 0x0, symName: __ZNSt3__114in_place_indexILm1EEE, symObjAddr: 0xEC02, symBinAddr: 0x10000F832, symSize: 0x0 }
  - { offset: 0x147, size: 0x8, addend: 0x0, symName: __ZNSt3__114in_place_indexILm2EEE, symObjAddr: 0xEC03, symBinAddr: 0x10000F833, symSize: 0x0 }
  - { offset: 0x18C, size: 0x8, addend: 0x0, symName: __ZNSt3__114in_place_indexILm3EEE, symObjAddr: 0xEC04, symBinAddr: 0x10000F834, symSize: 0x0 }
  - { offset: 0x1D1, size: 0x8, addend: 0x0, symName: __ZNSt3__114in_place_indexILm4EEE, symObjAddr: 0xEC05, symBinAddr: 0x10000F835, symSize: 0x0 }
  - { offset: 0x216, size: 0x8, addend: 0x0, symName: __ZNSt3__114in_place_indexILm5EEE, symObjAddr: 0xEC06, symBinAddr: 0x10000F836, symSize: 0x0 }
  - { offset: 0x25B, size: 0x8, addend: 0x0, symName: __ZNSt3__18in_placeE, symObjAddr: 0xEC07, symBinAddr: 0x10000F837, symSize: 0x0 }
  - { offset: 0xBA20, size: 0x8, addend: 0x0, symName: __ZNSt3__17advanceB8ne180100IP9JsonValuellvEEvRT_T0_, symObjAddr: 0x59C4, symBinAddr: 0x100005FAC, symSize: 0x38 }
  - { offset: 0xBCD2, size: 0x8, addend: 0x0, symName: __ZNSt3__17advanceB8ne180100INS_21__tree_const_iteratorINS_12__value_typeINS_12basic_stringIcNS_11char_traitsIcEENS_9allocatorIcEEEE9JsonValueEEPNS_11__tree_nodeISA_PvEElEEllvEEvRT_T0_, symObjAddr: 0x7C18, symBinAddr: 0x100008200, symSize: 0x38 }
  - { offset: 0xC299, size: 0x8, addend: 0x0, symName: __ZNSt3__124__put_character_sequenceB8ne180100IcNS_11char_traitsIcEEEERNS_13basic_ostreamIT_T0_EES7_PKS4_m, symObjAddr: 0xDDEC, symBinAddr: 0x10000E3D4, symSize: 0x1EC }
  - { offset: 0xD31C, size: 0x8, addend: 0x0, symName: __ZNSt3__1lsB8ne180100INS_11char_traitsIcEEEERNS_13basic_ostreamIcT_EES6_PKc, symObjAddr: 0x224, symBinAddr: 0x10000080C, symSize: 0x48 }
  - { offset: 0xD3CC, size: 0x8, addend: 0x0, symName: __ZNSt3__116forward_as_tupleB8ne180100IJRKNS_12basic_stringIcNS_11char_traitsIcEENS_9allocatorIcEEEEEEENS_5tupleIJDpOT_EEESC_, symObjAddr: 0x1758, symBinAddr: 0x100001D40, symSize: 0x2C }
  - { offset: 0xD405, size: 0x8, addend: 0x0, symName: __ZNSt3__116forward_as_tupleB8ne180100IJEEENS_5tupleIJDpOT_EEES4_, symObjAddr: 0x1784, symBinAddr: 0x100001D6C, symSize: 0x4 }
  - { offset: 0xD429, size: 0x8, addend: 0x0, symName: __ZNSt3__1ltB8ne180100IcNS_11char_traitsIcEENS_9allocatorIcEEEEbRKNS_12basic_stringIT_T0_T1_EESB_, symObjAddr: 0x1E50, symBinAddr: 0x100002438, symSize: 0x38 }
  - { offset: 0xD481, size: 0x8, addend: 0x0, symName: __ZNSt3__13minB8ne180100ImEERKT_S3_S3_, symObjAddr: 0x2130, symBinAddr: 0x100002718, symSize: 0x2C }
  - { offset: 0xD4C4, size: 0x8, addend: 0x0, symName: __ZNSt3__112__to_addressB8ne180100IKcEEPT_S3_, symObjAddr: 0x2228, symBinAddr: 0x100002810, symSize: 0x14 }
  - { offset: 0xD52C, size: 0x8, addend: 0x0, symName: __ZNSt3__13minB8ne180100ImNS_6__lessIvvEEEERKT_S5_S5_T0_, symObjAddr: 0x22F4, symBinAddr: 0x1000028DC, symSize: 0x54 }
  - { offset: 0xD5CB, size: 0x8, addend: 0x0, symName: __ZNSt3__17launderB8ne180100IKNS_4pairIKNS_12basic_stringIcNS_11char_traitsIcEENS_9allocatorIcEEEE9JsonValueEEEEPT_SD_, symObjAddr: 0x23E4, symBinAddr: 0x1000029CC, symSize: 0x24 }
  - { offset: 0xD602, size: 0x8, addend: 0x0, symName: __ZNSt3__19__launderB8ne180100IKNS_4pairIKNS_12basic_stringIcNS_11char_traitsIcEENS_9allocatorIcEEEE9JsonValueEEEEPT_SD_, symObjAddr: 0x2408, symBinAddr: 0x1000029F0, symSize: 0x14 }
  - { offset: 0xD657, size: 0x8, addend: 0x0, symName: __ZNSt3__117__libcpp_allocateB8ne180100Emm, symObjAddr: 0x2694, symBinAddr: 0x100002C7C, symSize: 0x60 }
  - { offset: 0xD6B1, size: 0x8, addend: 0x0, symName: __ZNSt3__124__is_overaligned_for_newB8ne180100Em, symObjAddr: 0x2714, symBinAddr: 0x100002CFC, symSize: 0x20 }
  - { offset: 0xD6DF, size: 0x8, addend: 0x0, symName: __ZNSt3__121__libcpp_operator_newB8ne180100IJmSt11align_val_tEEEPvDpT_, symObjAddr: 0x2734, symBinAddr: 0x100002D1C, symSize: 0x2C }
  - { offset: 0xD72C, size: 0x8, addend: 0x0, symName: __ZNSt3__121__libcpp_operator_newB8ne180100IJmEEEPvDpT_, symObjAddr: 0x2760, symBinAddr: 0x100002D48, symSize: 0x24 }
  - { offset: 0xD770, size: 0x8, addend: 0x0, symName: __ZNSt3__13getB8ne180100ILm0EJRKNS_12basic_stringIcNS_11char_traitsIcEENS_9allocatorIcEEEEEEERNS_13tuple_elementIXT_ENS_5tupleIJDpT0_EEEE4typeERSD_, symObjAddr: 0x29E8, symBinAddr: 0x100002FD0, symSize: 0x24 }
  - { offset: 0xD7B3, size: 0x8, addend: 0x0, symName: __ZNSt3__127__tree_balance_after_insertB8ne180100IPNS_16__tree_node_baseIPvEEEEvT_S5_, symObjAddr: 0x2A98, symBinAddr: 0x100003080, symSize: 0x32C }
  - { offset: 0xD82F, size: 0x8, addend: 0x0, symName: __ZNSt3__120__tree_is_left_childB8ne180100IPNS_16__tree_node_baseIPvEEEEbT_, symObjAddr: 0x2E04, symBinAddr: 0x1000033EC, symSize: 0x2C }
  - { offset: 0xD864, size: 0x8, addend: 0x0, symName: __ZNSt3__118__tree_left_rotateB8ne180100IPNS_16__tree_node_baseIPvEEEEvT_, symObjAddr: 0x2E30, symBinAddr: 0x100003418, symSize: 0xD8 }
  - { offset: 0xD8A3, size: 0x8, addend: 0x0, symName: __ZNSt3__119__tree_right_rotateB8ne180100IPNS_16__tree_node_baseIPvEEEEvT_, symObjAddr: 0x2F08, symBinAddr: 0x1000034F0, symSize: 0xCC }
  - { offset: 0xD8E5, size: 0x8, addend: 0x0, symName: __ZNSt3__112__destroy_atB8ne180100INS_4pairIKNS_12basic_stringIcNS_11char_traitsIcEENS_9allocatorIcEEEE9JsonValueEELi0EEEvPT_, symObjAddr: 0x3200, symBinAddr: 0x1000037E8, symSize: 0x24 }
  - { offset: 0xD91C, size: 0x8, addend: 0x0, symName: __ZNSt3__119__libcpp_deallocateB8ne180100EPvmm, symObjAddr: 0x32CC, symBinAddr: 0x1000038B4, symSize: 0x60 }
  - { offset: 0xD981, size: 0x8, addend: 0x0, symName: __ZNSt3__127__do_deallocate_handle_sizeB8ne180100IJSt11align_val_tEEEvPvmDpT_, symObjAddr: 0x332C, symBinAddr: 0x100003914, symSize: 0x30 }
  - { offset: 0xD9D4, size: 0x8, addend: 0x0, symName: __ZNSt3__127__do_deallocate_handle_sizeB8ne180100IJEEEvPvmDpT_, symObjAddr: 0x335C, symBinAddr: 0x100003944, symSize: 0x28 }
  - { offset: 0xDA12, size: 0x8, addend: 0x0, symName: __ZNSt3__124__libcpp_operator_deleteB8ne180100IJPvSt11align_val_tEEEvDpT_, symObjAddr: 0x3384, symBinAddr: 0x10000396C, symSize: 0x2C }
  - { offset: 0xDA5B, size: 0x8, addend: 0x0, symName: __ZNSt3__124__libcpp_operator_deleteB8ne180100IJPvEEEvDpT_, symObjAddr: 0x33B0, symBinAddr: 0x100003998, symSize: 0x24 }
  - { offset: 0xDAE7, size: 0x8, addend: 0x0, symName: __ZNSt3__17launderB8ne180100INS_4pairIKNS_12basic_stringIcNS_11char_traitsIcEENS_9allocatorIcEEEE9JsonValueEEEEPT_SC_, symObjAddr: 0x3548, symBinAddr: 0x100003B30, symSize: 0x24 }
  - { offset: 0xDB1E, size: 0x8, addend: 0x0, symName: __ZNSt3__19__launderB8ne180100INS_4pairIKNS_12basic_stringIcNS_11char_traitsIcEENS_9allocatorIcEEEE9JsonValueEEEEPT_SC_, symObjAddr: 0x356C, symBinAddr: 0x100003B54, symSize: 0x14 }
  - { offset: 0xDB9B, size: 0x8, addend: 0x0, symName: __ZNSt3__18__invokeB8ne180100IZNS_16__variant_detail6__dtorINS1_8__traitsIJDnbdNS_12basic_stringIcNS_11char_traitsIcEENS_9allocatorIcEEEENS_6vectorI9JsonValueNS7_ISB_EEEENS_3mapIS9_SB_NS_4lessIS9_EENS7_INS_4pairIKS9_SB_EEEEEEEEELNS1_6_TraitE1EE9__destroyB8ne180100EvEUlRT_E_JRNS1_5__altILm0EDnEEEEEDTclclsr3stdE7declvalISP_EEspclsr3stdE7declvalIT0_EEEEOSP_DpOSV_, symObjAddr: 0x3A18, symBinAddr: 0x100004000, symSize: 0x2C }
  - { offset: 0xDBE8, size: 0x8, addend: 0x0, symName: __ZNSt3__18__invokeB8ne180100IZNS_16__variant_detail6__dtorINS1_8__traitsIJDnbdNS_12basic_stringIcNS_11char_traitsIcEENS_9allocatorIcEEEENS_6vectorI9JsonValueNS7_ISB_EEEENS_3mapIS9_SB_NS_4lessIS9_EENS7_INS_4pairIKS9_SB_EEEEEEEEELNS1_6_TraitE1EE9__destroyB8ne180100EvEUlRT_E_JRNS1_5__altILm1EbEEEEEDTclclsr3stdE7declvalISP_EEspclsr3stdE7declvalIT0_EEEEOSP_DpOSV_, symObjAddr: 0x3A90, symBinAddr: 0x100004078, symSize: 0x2C }
  - { offset: 0xDC35, size: 0x8, addend: 0x0, symName: __ZNSt3__18__invokeB8ne180100IZNS_16__variant_detail6__dtorINS1_8__traitsIJDnbdNS_12basic_stringIcNS_11char_traitsIcEENS_9allocatorIcEEEENS_6vectorI9JsonValueNS7_ISB_EEEENS_3mapIS9_SB_NS_4lessIS9_EENS7_INS_4pairIKS9_SB_EEEEEEEEELNS1_6_TraitE1EE9__destroyB8ne180100EvEUlRT_E_JRNS1_5__altILm2EdEEEEEDTclclsr3stdE7declvalISP_EEspclsr3stdE7declvalIT0_EEEEOSP_DpOSV_, symObjAddr: 0x3B2C, symBinAddr: 0x100004114, symSize: 0x2C }
  - { offset: 0xDC82, size: 0x8, addend: 0x0, symName: __ZNSt3__18__invokeB8ne180100IZNS_16__variant_detail6__dtorINS1_8__traitsIJDnbdNS_12basic_stringIcNS_11char_traitsIcEENS_9allocatorIcEEEENS_6vectorI9JsonValueNS7_ISB_EEEENS_3mapIS9_SB_NS_4lessIS9_EENS7_INS_4pairIKS9_SB_EEEEEEEEELNS1_6_TraitE1EE9__destroyB8ne180100EvEUlRT_E_JRNS1_5__altILm3ES9_EEEEEDTclclsr3stdE7declvalISP_EEspclsr3stdE7declvalIT0_EEEEOSP_DpOSV_, symObjAddr: 0x3BEC, symBinAddr: 0x1000041D4, symSize: 0x2C }
  - { offset: 0xDCCF, size: 0x8, addend: 0x0, symName: __ZNSt3__18__invokeB8ne180100IZNS_16__variant_detail6__dtorINS1_8__traitsIJDnbdNS_12basic_stringIcNS_11char_traitsIcEENS_9allocatorIcEEEENS_6vectorI9JsonValueNS7_ISB_EEEENS_3mapIS9_SB_NS_4lessIS9_EENS7_INS_4pairIKS9_SB_EEEEEEEEELNS1_6_TraitE1EE9__destroyB8ne180100EvEUlRT_E_JRNS1_5__altILm4ESD_EEEEEDTclclsr3stdE7declvalISP_EEspclsr3stdE7declvalIT0_EEEEOSP_DpOSV_, symObjAddr: 0x3D3C, symBinAddr: 0x100004324, symSize: 0x2C }
  - { offset: 0xDD1C, size: 0x8, addend: 0x0, symName: __ZNSt3__112__to_addressB8ne180100I9JsonValueEEPT_S3_, symObjAddr: 0x40EC, symBinAddr: 0x1000046D4, symSize: 0x14 }
  - { offset: 0xDD51, size: 0x8, addend: 0x0, symName: __ZNSt3__18__invokeB8ne180100IZNS_16__variant_detail6__dtorINS1_8__traitsIJDnbdNS_12basic_stringIcNS_11char_traitsIcEENS_9allocatorIcEEEENS_6vectorI9JsonValueNS7_ISB_EEEENS_3mapIS9_SB_NS_4lessIS9_EENS7_INS_4pairIKS9_SB_EEEEEEEEELNS1_6_TraitE1EE9__destroyB8ne180100EvEUlRT_E_JRNS1_5__altILm5ESL_EEEEEDTclclsr3stdE7declvalISP_EEspclsr3stdE7declvalIT0_EEEEOSP_DpOSV_, symObjAddr: 0x42A4, symBinAddr: 0x10000488C, symSize: 0x2C }
  - { offset: 0xDDE4, size: 0x8, addend: 0x0, symName: __ZNSt3__18__invokeB8ne180100IZNS_16__variant_detail12__assignmentINS1_8__traitsIJDnbdNS_12basic_stringIcNS_11char_traitsIcEENS_9allocatorIcEEEENS_6vectorI9JsonValueNS7_ISB_EEEENS_3mapIS9_SB_NS_4lessIS9_EENS7_INS_4pairIKS9_SB_EEEEEEEEEE16__generic_assignB8ne180100IRKNS1_17__copy_assignmentISM_LNS1_6_TraitE1EEEEEvOT_EUlRSU_OT0_E_JRNS1_5__altILm0EDnEERKS11_EEEDTclclsr3stdE7declvalISU_EEspclsr3stdE7declvalIT0_EEEESV_DpOS15_, symObjAddr: 0x4684, symBinAddr: 0x100004C6C, symSize: 0x34 }
  - { offset: 0xDE45, size: 0x8, addend: 0x0, symName: __ZNSt3__18__invokeB8ne180100IZNS_16__variant_detail12__assignmentINS1_8__traitsIJDnbdNS_12basic_stringIcNS_11char_traitsIcEENS_9allocatorIcEEEENS_6vectorI9JsonValueNS7_ISB_EEEENS_3mapIS9_SB_NS_4lessIS9_EENS7_INS_4pairIKS9_SB_EEEEEEEEEE16__generic_assignB8ne180100IRKNS1_17__copy_assignmentISM_LNS1_6_TraitE1EEEEEvOT_EUlRSU_OT0_E_JRNS1_5__altILm1EbEERKS11_EEEDTclclsr3stdE7declvalISU_EEspclsr3stdE7declvalIT0_EEEESV_DpOS15_, symObjAddr: 0x48AC, symBinAddr: 0x100004E94, symSize: 0x34 }
  - { offset: 0xDEA6, size: 0x8, addend: 0x0, symName: __ZNSt3__18__invokeB8ne180100IZNS_16__variant_detail12__assignmentINS1_8__traitsIJDnbdNS_12basic_stringIcNS_11char_traitsIcEENS_9allocatorIcEEEENS_6vectorI9JsonValueNS7_ISB_EEEENS_3mapIS9_SB_NS_4lessIS9_EENS7_INS_4pairIKS9_SB_EEEEEEEEEE16__generic_assignB8ne180100IRKNS1_17__copy_assignmentISM_LNS1_6_TraitE1EEEEEvOT_EUlRSU_OT0_E_JRNS1_5__altILm2EdEERKS11_EEEDTclclsr3stdE7declvalISU_EEspclsr3stdE7declvalIT0_EEEESV_DpOS15_, symObjAddr: 0x4B14, symBinAddr: 0x1000050FC, symSize: 0x34 }
  - { offset: 0xDF07, size: 0x8, addend: 0x0, symName: __ZNSt3__18__invokeB8ne180100IZNS_16__variant_detail12__assignmentINS1_8__traitsIJDnbdNS_12basic_stringIcNS_11char_traitsIcEENS_9allocatorIcEEEENS_6vectorI9JsonValueNS7_ISB_EEEENS_3mapIS9_SB_NS_4lessIS9_EENS7_INS_4pairIKS9_SB_EEEEEEEEEE16__generic_assignB8ne180100IRKNS1_17__copy_assignmentISM_LNS1_6_TraitE1EEEEEvOT_EUlRSU_OT0_E_JRNS1_5__altILm3ES9_EERKS11_EEEDTclclsr3stdE7declvalISU_EEspclsr3stdE7declvalIT0_EEEESV_DpOS15_, symObjAddr: 0x4D98, symBinAddr: 0x100005380, symSize: 0x34 }
  - { offset: 0xDF68, size: 0x8, addend: 0x0, symName: __ZNSt3__18__invokeB8ne180100IZNS_16__variant_detail12__assignmentINS1_8__traitsIJDnbdNS_12basic_stringIcNS_11char_traitsIcEENS_9allocatorIcEEEENS_6vectorI9JsonValueNS7_ISB_EEEENS_3mapIS9_SB_NS_4lessIS9_EENS7_INS_4pairIKS9_SB_EEEEEEEEEE16__generic_assignB8ne180100IRKNS1_17__copy_assignmentISM_LNS1_6_TraitE1EEEEEvOT_EUlRSU_OT0_E_JRNS1_5__altILm4ESD_EERKS11_EEEDTclclsr3stdE7declvalISU_EEspclsr3stdE7declvalIT0_EEEESV_DpOS15_, symObjAddr: 0x5218, symBinAddr: 0x100005800, symSize: 0x34 }
  - { offset: 0xDFC9, size: 0x8, addend: 0x0, symName: __ZNSt3__18distanceB8ne180100IP9JsonValueEENS_15iterator_traitsIT_E15difference_typeES4_S4_, symObjAddr: 0x55EC, symBinAddr: 0x100005BD4, symSize: 0x2C }
  - { offset: 0xE00C, size: 0x8, addend: 0x0, symName: __ZNSt3__14nextB8ne180100IP9JsonValueLi0EEET_S3_NS_15iterator_traitsIS3_E15difference_typeE, symObjAddr: 0x5640, symBinAddr: 0x100005C28, symSize: 0x34 }
  - { offset: 0xE055, size: 0x8, addend: 0x0, symName: __ZNSt3__14copyB8ne180100IP9JsonValueS2_EET0_T_S4_S3_, symObjAddr: 0x5674, symBinAddr: 0x100005C5C, symSize: 0x40 }
  - { offset: 0xE0AF, size: 0x8, addend: 0x0, symName: __ZNSt3__16__copyB8ne180100INS_17_ClassicAlgPolicyEP9JsonValueS3_S3_EENS_4pairIT0_T2_EES5_T1_S6_, symObjAddr: 0x5740, symBinAddr: 0x100005D28, symSize: 0x44 }
  - { offset: 0xE11B, size: 0x8, addend: 0x0, symName: __ZNSt3__121__convert_to_integralB8ne180100El, symObjAddr: 0x59FC, symBinAddr: 0x100005FE4, symSize: 0x14 }
  - { offset: 0xE147, size: 0x8, addend: 0x0, symName: __ZNSt3__19__advanceB8ne180100IP9JsonValueEEvRT_NS_15iterator_traitsIS3_E15difference_typeENS_26random_access_iterator_tagE, symObjAddr: 0x5A10, symBinAddr: 0x100005FF8, symSize: 0x28 }
  - { offset: 0xE190, size: 0x8, addend: 0x0, symName: __ZNSt3__130__uninitialized_allocator_copyB8ne180100INS_9allocatorI9JsonValueEEPS2_S4_S4_EET2_RT_T0_T1_S5_, symObjAddr: 0x5A74, symBinAddr: 0x10000605C, symSize: 0x80 }
  - { offset: 0xE22D, size: 0x8, addend: 0x0, symName: __ZNSt3__114__unwrap_rangeB8ne180100IP9JsonValueS2_EENS_4pairIT0_S4_EET_S6_, symObjAddr: 0x5B64, symBinAddr: 0x10000614C, symSize: 0x60 }
  - { offset: 0xE279, size: 0x8, addend: 0x0, symName: __ZNSt3__135__uninitialized_allocator_copy_implB8ne180100INS_9allocatorI9JsonValueEEPS2_S4_S4_EET2_RT_T0_T1_S5_, symObjAddr: 0x5BC4, symBinAddr: 0x1000061AC, symSize: 0xF4 }
  - { offset: 0xE317, size: 0x8, addend: 0x0, symName: __ZNSt3__113__unwrap_iterB8ne180100IP9JsonValueNS_18__unwrap_iter_implIS2_Lb1EEELi0EEEDTclsrT0_8__unwrapclsr3stdE7declvalIT_EEEES6_, symObjAddr: 0x5CB8, symBinAddr: 0x1000062A0, symSize: 0x24 }
  - { offset: 0xE35B, size: 0x8, addend: 0x0, symName: __ZNSt3__113__rewrap_iterB8ne180100IP9JsonValueS2_NS_18__unwrap_iter_implIS2_Lb1EEEEET_S5_T0_, symObjAddr: 0x5CDC, symBinAddr: 0x1000062C4, symSize: 0x3C }
  - { offset: 0xE3B0, size: 0x8, addend: 0x0, symName: __ZNSt3__19make_pairB8ne180100IP9JsonValueS2_EENS_4pairINS_18__unwrap_ref_decayIT_E4typeENS4_IT0_E4typeEEEOS5_OS8_, symObjAddr: 0x5D18, symBinAddr: 0x100006300, symSize: 0x38 }
  - { offset: 0xE4D3, size: 0x8, addend: 0x0, symName: __ZNSt3__122__make_exception_guardB8ne180100INS_29_AllocatorDestroyRangeReverseINS_9allocatorI9JsonValueEEPS3_EEEENS_28__exception_guard_exceptionsIT_EES8_, symObjAddr: 0x5DC0, symBinAddr: 0x1000063A8, symSize: 0x4C }
  - { offset: 0xE54F, size: 0x8, addend: 0x0, symName: __ZNSt3__18__invokeB8ne180100IZNS_16__variant_detail6__ctorINS1_8__traitsIJDnbdNS_12basic_stringIcNS_11char_traitsIcEENS_9allocatorIcEEEENS_6vectorI9JsonValueNS7_ISB_EEEENS_3mapIS9_SB_NS_4lessIS9_EENS7_INS_4pairIKS9_SB_EEEEEEEEEE19__generic_constructB8ne180100IRKNS1_18__copy_constructorISM_LNS1_6_TraitE1EEEEEvRSN_OT_EUlRSV_OT0_E_JRNS1_5__altILm0EDnEERKS12_EEEDTclclsr3stdE7declvalISV_EEspclsr3stdE7declvalIT0_EEEESW_DpOS16_, symObjAddr: 0x65DC, symBinAddr: 0x100006BC4, symSize: 0x34 }
  - { offset: 0xE5B0, size: 0x8, addend: 0x0, symName: __ZNSt3__18__invokeB8ne180100IZNS_16__variant_detail6__ctorINS1_8__traitsIJDnbdNS_12basic_stringIcNS_11char_traitsIcEENS_9allocatorIcEEEENS_6vectorI9JsonValueNS7_ISB_EEEENS_3mapIS9_SB_NS_4lessIS9_EENS7_INS_4pairIKS9_SB_EEEEEEEEEE19__generic_constructB8ne180100IRKNS1_18__copy_constructorISM_LNS1_6_TraitE1EEEEEvRSN_OT_EUlRSV_OT0_E_JRNS1_5__altILm1EbEERKS12_EEEDTclclsr3stdE7declvalISV_EEspclsr3stdE7declvalIT0_EEEESW_DpOS16_, symObjAddr: 0x6640, symBinAddr: 0x100006C28, symSize: 0x34 }
  - { offset: 0xE611, size: 0x8, addend: 0x0, symName: __ZNSt3__18__invokeB8ne180100IZNS_16__variant_detail6__ctorINS1_8__traitsIJDnbdNS_12basic_stringIcNS_11char_traitsIcEENS_9allocatorIcEEEENS_6vectorI9JsonValueNS7_ISB_EEEENS_3mapIS9_SB_NS_4lessIS9_EENS7_INS_4pairIKS9_SB_EEEEEEEEEE19__generic_constructB8ne180100IRKNS1_18__copy_constructorISM_LNS1_6_TraitE1EEEEEvRSN_OT_EUlRSV_OT0_E_JRNS1_5__altILm2EdEERKS12_EEEDTclclsr3stdE7declvalISV_EEspclsr3stdE7declvalIT0_EEEESW_DpOS16_, symObjAddr: 0x66A4, symBinAddr: 0x100006C8C, symSize: 0x34 }
  - { offset: 0xE672, size: 0x8, addend: 0x0, symName: __ZNSt3__18__invokeB8ne180100IZNS_16__variant_detail6__ctorINS1_8__traitsIJDnbdNS_12basic_stringIcNS_11char_traitsIcEENS_9allocatorIcEEEENS_6vectorI9JsonValueNS7_ISB_EEEENS_3mapIS9_SB_NS_4lessIS9_EENS7_INS_4pairIKS9_SB_EEEEEEEEEE19__generic_constructB8ne180100IRKNS1_18__copy_constructorISM_LNS1_6_TraitE1EEEEEvRSN_OT_EUlRSV_OT0_E_JRNS1_5__altILm3ES9_EERKS12_EEEDTclclsr3stdE7declvalISV_EEspclsr3stdE7declvalIT0_EEEESW_DpOS16_, symObjAddr: 0x6708, symBinAddr: 0x100006CF0, symSize: 0x34 }
  - { offset: 0xE6D3, size: 0x8, addend: 0x0, symName: __ZNSt3__18__invokeB8ne180100IZNS_16__variant_detail6__ctorINS1_8__traitsIJDnbdNS_12basic_stringIcNS_11char_traitsIcEENS_9allocatorIcEEEENS_6vectorI9JsonValueNS7_ISB_EEEENS_3mapIS9_SB_NS_4lessIS9_EENS7_INS_4pairIKS9_SB_EEEEEEEEEE19__generic_constructB8ne180100IRKNS1_18__copy_constructorISM_LNS1_6_TraitE1EEEEEvRSN_OT_EUlRSV_OT0_E_JRNS1_5__altILm4ESD_EERKS12_EEEDTclclsr3stdE7declvalISV_EEspclsr3stdE7declvalIT0_EEEESW_DpOS16_, symObjAddr: 0x6804, symBinAddr: 0x100006DEC, symSize: 0x34 }
  - { offset: 0xE734, size: 0x8, addend: 0x0, symName: __ZNSt3__122__make_exception_guardB8ne180100INS_6vectorI9JsonValueNS_9allocatorIS2_EEE16__destroy_vectorEEENS_28__exception_guard_exceptionsIT_EES8_, symObjAddr: 0x6BA4, symBinAddr: 0x10000718C, symSize: 0x40 }
  - { offset: 0xE769, size: 0x8, addend: 0x0, symName: __ZNSt3__18__invokeB8ne180100IZNS_16__variant_detail6__ctorINS1_8__traitsIJDnbdNS_12basic_stringIcNS_11char_traitsIcEENS_9allocatorIcEEEENS_6vectorI9JsonValueNS7_ISB_EEEENS_3mapIS9_SB_NS_4lessIS9_EENS7_INS_4pairIKS9_SB_EEEEEEEEEE19__generic_constructB8ne180100IRKNS1_18__copy_constructorISM_LNS1_6_TraitE1EEEEEvRSN_OT_EUlRSV_OT0_E_JRNS1_5__altILm5ESL_EERKS12_EEEDTclclsr3stdE7declvalISV_EEspclsr3stdE7declvalIT0_EEEESW_DpOS16_, symObjAddr: 0x6CCC, symBinAddr: 0x1000072B4, symSize: 0x34 }
  - { offset: 0xE7CA, size: 0x8, addend: 0x0, symName: __ZNSt3__1neB8ne180100ERKNS_20__map_const_iteratorINS_21__tree_const_iteratorINS_12__value_typeINS_12basic_stringIcNS_11char_traitsIcEENS_9allocatorIcEEEE9JsonValueEEPNS_11__tree_nodeISA_PvEElEEEESI_, symObjAddr: 0x725C, symBinAddr: 0x100007844, symSize: 0x30 }
  - { offset: 0xE807, size: 0x8, addend: 0x0, symName: __ZNSt3__1neB8ne180100ERKNS_21__tree_const_iteratorINS_12__value_typeINS_12basic_stringIcNS_11char_traitsIcEENS_9allocatorIcEEEE9JsonValueEEPNS_11__tree_nodeIS9_PvEElEESG_, symObjAddr: 0x7364, symBinAddr: 0x10000794C, symSize: 0x34 }
  - { offset: 0xE844, size: 0x8, addend: 0x0, symName: __ZNSt3__1eqB8ne180100ERKNS_21__tree_const_iteratorINS_12__value_typeINS_12basic_stringIcNS_11char_traitsIcEENS_9allocatorIcEEEE9JsonValueEEPNS_11__tree_nodeIS9_PvEElEESG_, symObjAddr: 0x7398, symBinAddr: 0x100007980, symSize: 0x30 }
  - { offset: 0xE881, size: 0x8, addend: 0x0, symName: __ZNSt3__14nextB8ne180100INS_21__tree_const_iteratorINS_12__value_typeINS_12basic_stringIcNS_11char_traitsIcEENS_9allocatorIcEEEE9JsonValueEEPNS_11__tree_nodeISA_PvEElEELi0EEET_SG_NS_15iterator_traitsISG_E15difference_typeE, symObjAddr: 0x7A88, symBinAddr: 0x100008070, symSize: 0x3C }
  - { offset: 0xE8CA, size: 0x8, addend: 0x0, symName: __ZNSt3__116__tree_prev_iterB8ne180100IPNS_16__tree_node_baseIPvEEPNS_15__tree_end_nodeIS4_EEEET_T0_, symObjAddr: 0x7B50, symBinAddr: 0x100008138, symSize: 0x88 }
  - { offset: 0xE916, size: 0x8, addend: 0x0, symName: __ZNSt3__110__tree_maxB8ne180100IPNS_16__tree_node_baseIPvEEEET_S5_, symObjAddr: 0x7BD8, symBinAddr: 0x1000081C0, symSize: 0x40 }
  - { offset: 0xE94B, size: 0x8, addend: 0x0, symName: __ZNSt3__19__advanceB8ne180100INS_21__tree_const_iteratorINS_12__value_typeINS_12basic_stringIcNS_11char_traitsIcEENS_9allocatorIcEEEE9JsonValueEEPNS_11__tree_nodeISA_PvEElEEEEvRT_NS_15iterator_traitsISG_E15difference_typeENS_26bidirectional_iterator_tagE, symObjAddr: 0x7C50, symBinAddr: 0x100008238, symSize: 0xA4 }
  - { offset: 0xE994, size: 0x8, addend: 0x0, symName: __ZNSt3__116__tree_next_iterB8ne180100IPNS_15__tree_end_nodeIPNS_16__tree_node_baseIPvEEEES5_EET_T0_, symObjAddr: 0x7D2C, symBinAddr: 0x100008314, symSize: 0x80 }
  - { offset: 0xE9D2, size: 0x8, addend: 0x0, symName: __ZNSt3__110__tree_minB8ne180100IPNS_16__tree_node_baseIPvEEEET_S5_, symObjAddr: 0x7DAC, symBinAddr: 0x100008394, symSize: 0x40 }
  - { offset: 0xEA3A, size: 0x8, addend: 0x0, symName: __ZNSt3__119__allocator_destroyB8ne180100INS_9allocatorI9JsonValueEENS_16reverse_iteratorIPS2_EES6_EEvRT_T0_T1_, symObjAddr: 0x83A0, symBinAddr: 0x100008988, symSize: 0x70 }
  - { offset: 0xEA9D, size: 0x8, addend: 0x0, symName: __ZNSt3__1neB8ne180100IP9JsonValueS2_EEbRKNS_16reverse_iteratorIT_EERKNS3_IT0_EE, symObjAddr: 0x8444, symBinAddr: 0x100008A2C, symSize: 0x48 }
  - { offset: 0xEAE9, size: 0x8, addend: 0x0, symName: __ZNSt3__112__to_addressB8ne180100INS_16reverse_iteratorIP9JsonValueEEvEEu7__decayIDTclsr19__to_address_helperIT_EE6__callclsr3stdE7declvalIRKS5_EEEEES7_, symObjAddr: 0x848C, symBinAddr: 0x100008A74, symSize: 0x24 }
  - { offset: 0xEB9B, size: 0x8, addend: 0x0, symName: __ZNSt3__123__dispatch_copy_or_moveB8ne180100INS_17_ClassicAlgPolicyENS_11__copy_loopIS1_EENS_14__copy_trivialEP9JsonValueS6_S6_EENS_4pairIT2_T4_EES8_T3_S9_, symObjAddr: 0x8628, symBinAddr: 0x100008C10, symSize: 0x44 }
  - { offset: 0xEC19, size: 0x8, addend: 0x0, symName: __ZNSt3__121__unwrap_and_dispatchB8ne180100INS_10__overloadINS_11__copy_loopINS_17_ClassicAlgPolicyEEENS_14__copy_trivialEEEP9JsonValueS8_S8_Li0EEENS_4pairIT0_T2_EESA_T1_SB_, symObjAddr: 0x866C, symBinAddr: 0x100008C54, symSize: 0xB4 }
  - { offset: 0xED02, size: 0x8, addend: 0x0, symName: __ZNSt3__114__rewrap_rangeB8ne180100IP9JsonValueS2_EET_S3_T0_, symObjAddr: 0x87A8, symBinAddr: 0x100008D90, symSize: 0x2C }
  - { offset: 0xED4E, size: 0x8, addend: 0x0, symName: __ZNSt3__119__allocate_at_leastB8ne180100INS_9allocatorI9JsonValueEEEENS_19__allocation_resultINS_16allocator_traitsIT_E7pointerEEERS6_m, symObjAddr: 0x8908, symBinAddr: 0x100008EF0, symSize: 0x40 }
  - { offset: 0xEF7B, size: 0x8, addend: 0x0, symName: __ZNSt3__120__throw_length_errorB8ne180100EPKc, symObjAddr: 0x89B0, symBinAddr: 0x100008F98, symSize: 0x64 }
  - { offset: 0xEFA3, size: 0x8, addend: 0x0, symName: __ZNSt3__13maxB8ne180100ImEERKT_S3_S3_, symObjAddr: 0x8AE4, symBinAddr: 0x1000090CC, symSize: 0x2C }
  - { offset: 0xEFE6, size: 0x8, addend: 0x0, symName: __ZNSt3__13maxB8ne180100ImNS_6__lessIvvEEEERKT_S5_S5_T0_, symObjAddr: 0x8B10, symBinAddr: 0x1000090F8, symSize: 0x54 }
  - { offset: 0xF040, size: 0x8, addend: 0x0, symName: __ZNSt3__110__distanceB8ne180100IP9JsonValueEENS_15iterator_traitsIT_E15difference_typeES4_S4_NS_26random_access_iterator_tagE, symObjAddr: 0x8B64, symBinAddr: 0x10000914C, symSize: 0x28 }
  - { offset: 0xF08D, size: 0x8, addend: 0x0, symName: __ZNSt3__18__invokeB8ne180100IZNS_16__variant_detail12__assignmentINS1_8__traitsIJDnbdNS_12basic_stringIcNS_11char_traitsIcEENS_9allocatorIcEEEENS_6vectorI9JsonValueNS7_ISB_EEEENS_3mapIS9_SB_NS_4lessIS9_EENS7_INS_4pairIKS9_SB_EEEEEEEEEE16__generic_assignB8ne180100IRKNS1_17__copy_assignmentISM_LNS1_6_TraitE1EEEEEvOT_EUlRSU_OT0_E_JRNS1_5__altILm5ESL_EERKS11_EEEDTclclsr3stdE7declvalISU_EEspclsr3stdE7declvalIT0_EEEESV_DpOS15_, symObjAddr: 0x8E34, symBinAddr: 0x10000941C, symSize: 0x34 }
  - { offset: 0xF0EE, size: 0x8, addend: 0x0, symName: __ZNSt3__111__tree_leafB8ne180100IPNS_16__tree_node_baseIPvEEEET_S5_, symObjAddr: 0x9804, symBinAddr: 0x100009DEC, symSize: 0x70 }
  - { offset: 0xF174, size: 0x8, addend: 0x0, symName: __ZNSt3__18__invokeB8ne180100IZNS_16__variant_detail6__ctorINS1_8__traitsIJDnbdNS_12basic_stringIcNS_11char_traitsIcEENS_9allocatorIcEEEENS_6vectorI9JsonValueNS7_ISB_EEEENS_3mapIS9_SB_NS_4lessIS9_EENS7_INS_4pairIKS9_SB_EEEEEEEEEE19__generic_constructB8ne180100INS1_18__move_constructorISM_LNS1_6_TraitE1EEEEEvRSN_OT_EUlRST_OT0_E_JRNS1_5__altILm0EDnEES10_EEEDTclclsr3stdE7declvalIST_EEspclsr3stdE7declvalIT0_EEEESU_DpOS12_, symObjAddr: 0xAB20, symBinAddr: 0x10000B108, symSize: 0x34 }
  - { offset: 0xF1D5, size: 0x8, addend: 0x0, symName: __ZNSt3__18__invokeB8ne180100IZNS_16__variant_detail6__ctorINS1_8__traitsIJDnbdNS_12basic_stringIcNS_11char_traitsIcEENS_9allocatorIcEEEENS_6vectorI9JsonValueNS7_ISB_EEEENS_3mapIS9_SB_NS_4lessIS9_EENS7_INS_4pairIKS9_SB_EEEEEEEEEE19__generic_constructB8ne180100INS1_18__move_constructorISM_LNS1_6_TraitE1EEEEEvRSN_OT_EUlRST_OT0_E_JRNS1_5__altILm1EbEES10_EEEDTclclsr3stdE7declvalIST_EEspclsr3stdE7declvalIT0_EEEESU_DpOS12_, symObjAddr: 0xAC3C, symBinAddr: 0x10000B224, symSize: 0x34 }
  - { offset: 0xF236, size: 0x8, addend: 0x0, symName: __ZNSt3__18__invokeB8ne180100IZNS_16__variant_detail6__ctorINS1_8__traitsIJDnbdNS_12basic_stringIcNS_11char_traitsIcEENS_9allocatorIcEEEENS_6vectorI9JsonValueNS7_ISB_EEEENS_3mapIS9_SB_NS_4lessIS9_EENS7_INS_4pairIKS9_SB_EEEEEEEEEE19__generic_constructB8ne180100INS1_18__move_constructorISM_LNS1_6_TraitE1EEEEEvRSN_OT_EUlRST_OT0_E_JRNS1_5__altILm2EdEES10_EEEDTclclsr3stdE7declvalIST_EEspclsr3stdE7declvalIT0_EEEESU_DpOS12_, symObjAddr: 0xAD88, symBinAddr: 0x10000B370, symSize: 0x34 }
  - { offset: 0xF297, size: 0x8, addend: 0x0, symName: __ZNSt3__18__invokeB8ne180100IZNS_16__variant_detail6__ctorINS1_8__traitsIJDnbdNS_12basic_stringIcNS_11char_traitsIcEENS_9allocatorIcEEEENS_6vectorI9JsonValueNS7_ISB_EEEENS_3mapIS9_SB_NS_4lessIS9_EENS7_INS_4pairIKS9_SB_EEEEEEEEEE19__generic_constructB8ne180100INS1_18__move_constructorISM_LNS1_6_TraitE1EEEEEvRSN_OT_EUlRST_OT0_E_JRNS1_5__altILm3ES9_EES10_EEEDTclclsr3stdE7declvalIST_EEspclsr3stdE7declvalIT0_EEEESU_DpOS12_, symObjAddr: 0xAEF4, symBinAddr: 0x10000B4DC, symSize: 0x34 }
  - { offset: 0xF2F8, size: 0x8, addend: 0x0, symName: __ZNSt3__18__invokeB8ne180100IZNS_16__variant_detail6__ctorINS1_8__traitsIJDnbdNS_12basic_stringIcNS_11char_traitsIcEENS_9allocatorIcEEEENS_6vectorI9JsonValueNS7_ISB_EEEENS_3mapIS9_SB_NS_4lessIS9_EENS7_INS_4pairIKS9_SB_EEEEEEEEEE19__generic_constructB8ne180100INS1_18__move_constructorISM_LNS1_6_TraitE1EEEEEvRSN_OT_EUlRST_OT0_E_JRNS1_5__altILm4ESD_EES10_EEEDTclclsr3stdE7declvalIST_EEspclsr3stdE7declvalIT0_EEEESU_DpOS12_, symObjAddr: 0xAFFC, symBinAddr: 0x10000B5E4, symSize: 0x34 }
  - { offset: 0xF359, size: 0x8, addend: 0x0, symName: __ZNSt3__18__invokeB8ne180100IZNS_16__variant_detail6__ctorINS1_8__traitsIJDnbdNS_12basic_stringIcNS_11char_traitsIcEENS_9allocatorIcEEEENS_6vectorI9JsonValueNS7_ISB_EEEENS_3mapIS9_SB_NS_4lessIS9_EENS7_INS_4pairIKS9_SB_EEEEEEEEEE19__generic_constructB8ne180100INS1_18__move_constructorISM_LNS1_6_TraitE1EEEEEvRSN_OT_EUlRST_OT0_E_JRNS1_5__altILm5ESL_EES10_EEEDTclclsr3stdE7declvalIST_EEspclsr3stdE7declvalIT0_EEEESU_DpOS12_, symObjAddr: 0xB128, symBinAddr: 0x10000B710, symSize: 0x34 }
  - { offset: 0xF3BA, size: 0x8, addend: 0x0, symName: __ZNSt3__142__uninitialized_allocator_move_if_noexceptB8ne180100INS_9allocatorI9JsonValueEENS_16reverse_iteratorIPS2_EES6_S6_EET2_RT_T0_T1_S7_, symObjAddr: 0xB624, symBinAddr: 0x10000BC0C, symSize: 0x11C }
  - { offset: 0xF45A, size: 0x8, addend: 0x0, symName: __ZNSt3__14swapB8ne180100IP9JsonValueEENS_9enable_ifIXaasr21is_move_constructibleIT_EE5valuesr18is_move_assignableIS4_EE5valueEvE4typeERS4_S7_, symObjAddr: 0xB740, symBinAddr: 0x10000BD28, symSize: 0x3C }
  - { offset: 0xF4AB, size: 0x8, addend: 0x0, symName: __ZNSt3__122__make_exception_guardB8ne180100INS_29_AllocatorDestroyRangeReverseINS_9allocatorI9JsonValueEENS_16reverse_iteratorIPS3_EEEEEENS_28__exception_guard_exceptionsIT_EESA_, symObjAddr: 0xB77C, symBinAddr: 0x10000BD64, symSize: 0x4C }
  - { offset: 0xF4E1, size: 0x8, addend: 0x0, symName: __ZNSt3__119__allocator_destroyB8ne180100INS_9allocatorI9JsonValueEENS_16reverse_iteratorINS4_IPS2_EEEES7_EEvRT_T0_T1_, symObjAddr: 0xB9F4, symBinAddr: 0x10000BFDC, symSize: 0x70 }
  - { offset: 0xF546, size: 0x8, addend: 0x0, symName: __ZNSt3__1neB8ne180100INS_16reverse_iteratorIP9JsonValueEES4_EEbRKNS1_IT_EERKNS1_IT0_EE, symObjAddr: 0xBAA0, symBinAddr: 0x10000C088, symSize: 0x60 }
  - { offset: 0xF592, size: 0x8, addend: 0x0, symName: __ZNSt3__112__to_addressB8ne180100INS_16reverse_iteratorINS1_IP9JsonValueEEEEvEEu7__decayIDTclsr19__to_address_helperIT_EE6__callclsr3stdE7declvalIRKS6_EEEEES8_, symObjAddr: 0xBB00, symBinAddr: 0x10000C0E8, symSize: 0x24 }
  - { offset: 0xF5F1, size: 0x8, addend: 0x0, symName: __ZNSt3__1plB8ne180100IcNS_11char_traitsIcEENS_9allocatorIcEEEENS_12basic_stringIT_T0_T1_EEPKS6_OS9_, symObjAddr: 0xCF94, symBinAddr: 0x10000D57C, symSize: 0x44 }
  - { offset: 0xF67C, size: 0x8, addend: 0x0, symName: __ZNSt3__118__constexpr_strlenB8ne180100EPKc, symObjAddr: 0xDDC8, symBinAddr: 0x10000E3B0, symSize: 0x24 }
  - { offset: 0xF6A8, size: 0x8, addend: 0x0, symName: __ZNSt3__116__pad_and_outputB8ne180100IcNS_11char_traitsIcEEEENS_19ostreambuf_iteratorIT_T0_EES6_PKS4_S8_S8_RNS_8ios_baseES4_, symObjAddr: 0xDFF4, symBinAddr: 0x10000E5DC, symSize: 0x240 }
  - { offset: 0xF777, size: 0x8, addend: 0x0, symName: __ZNSt3__112__to_addressB8ne180100IcEEPT_S2_, symObjAddr: 0xE3DC, symBinAddr: 0x10000E9C4, symSize: 0x14 }
  - { offset: 0xF7AC, size: 0x8, addend: 0x0, symName: __ZNSt3__19use_facetB8ne180100INS_5ctypeIcEEEERKT_RKNS_6localeE, symObjAddr: 0xE534, symBinAddr: 0x10000EB1C, symSize: 0x2C }
  - { offset: 0x10BE0, size: 0x8, addend: 0x0, symName: __ZSt28__throw_bad_array_new_lengthB8ne180100v, symObjAddr: 0x2660, symBinAddr: 0x100002C48, symSize: 0x34 }
  - { offset: 0x11AF3, size: 0x8, addend: 0x0, symName: __ZNSt3__16vectorI9JsonValueNS_9allocatorIS1_EEE26__swap_out_circular_bufferERNS_14__split_bufferIS1_RS3_EE, symObjAddr: 0xB2BC, symBinAddr: 0x10000B8A4, symSize: 0x110 }
  - { offset: 0x11CA3, size: 0x8, addend: 0x0, symName: _main, symObjAddr: 0x0, symBinAddr: 0x1000005E8, symSize: 0x190 }
  - { offset: 0x11D02, size: 0x8, addend: 0x0, symName: __ZNSt3__112basic_stringIcNS_11char_traitsIcEENS_9allocatorIcEEEC1B8ne180100ILi0EEEPKc, symObjAddr: 0x190, symBinAddr: 0x100000778, symSize: 0x34 }
  - { offset: 0x11ED6, size: 0x8, addend: 0x0, symName: __ZN10JsonParserC1ERKNSt3__112basic_stringIcNS0_11char_traitsIcEENS0_9allocatorIcEEEE, symObjAddr: 0x1C4, symBinAddr: 0x1000007AC, symSize: 0x34 }
  - { offset: 0x11F0E, size: 0x8, addend: 0x0, symName: __ZN10JsonParser5parseEv, symObjAddr: 0x1F8, symBinAddr: 0x1000007E0, symSize: 0x2C }
  - { offset: 0x11F3A, size: 0x8, addend: 0x0, symName: __ZN9JsonValueD1Ev, symObjAddr: 0x26C, symBinAddr: 0x100000854, symSize: 0x2C }
  - { offset: 0x11F66, size: 0x8, addend: 0x0, symName: __ZN10JsonParserD1Ev, symObjAddr: 0x298, symBinAddr: 0x100000880, symSize: 0x2C }
  - { offset: 0x11F92, size: 0x8, addend: 0x0, symName: __ZN10JsonParserC2ERKNSt3__112basic_stringIcNS0_11char_traitsIcEENS0_9allocatorIcEEEE, symObjAddr: 0x2D4, symBinAddr: 0x1000008BC, symSize: 0x34 }
  - { offset: 0x11FCA, size: 0x8, addend: 0x0, symName: __ZN9TokenizerC1ERKNSt3__112basic_stringIcNS0_11char_traitsIcEENS0_9allocatorIcEEEE, symObjAddr: 0x308, symBinAddr: 0x1000008F0, symSize: 0x34 }
  - { offset: 0x12002, size: 0x8, addend: 0x0, symName: __ZN9TokenizerC2ERKNSt3__112basic_stringIcNS0_11char_traitsIcEENS0_9allocatorIcEEEE, symObjAddr: 0x33C, symBinAddr: 0x100000924, symSize: 0x38 }
  - { offset: 0x1203A, size: 0x8, addend: 0x0, symName: __ZN10JsonParser10parseValueEv, symObjAddr: 0x374, symBinAddr: 0x10000095C, symSize: 0x204 }
  - { offset: 0x1206E, size: 0x8, addend: 0x0, symName: __ZN9Tokenizer9peekTokenEv, symObjAddr: 0x5A4, symBinAddr: 0x100000B8C, symSize: 0x88 }
  - { offset: 0x120B1, size: 0x8, addend: 0x0, symName: __ZN10JsonParser11parseObjectEv, symObjAddr: 0x62C, symBinAddr: 0x100000C14, symSize: 0x348 }
  - { offset: 0x12128, size: 0x8, addend: 0x0, symName: __ZN10JsonParser10parseArrayEv, symObjAddr: 0x974, symBinAddr: 0x100000F5C, symSize: 0x1F4 }
  - { offset: 0x12172, size: 0x8, addend: 0x0, symName: __ZN10JsonParser11parseStringEv, symObjAddr: 0xB68, symBinAddr: 0x100001150, symSize: 0x70 }
  - { offset: 0x121A6, size: 0x8, addend: 0x0, symName: __ZN10JsonParser11parseNumberEv, symObjAddr: 0xBD8, symBinAddr: 0x1000011C0, symSize: 0x88 }
  - { offset: 0x121DA, size: 0x8, addend: 0x0, symName: __ZN9Tokenizer9nextTokenEv, symObjAddr: 0xC60, symBinAddr: 0x100001248, symSize: 0x478 }
  - { offset: 0x12214, size: 0x8, addend: 0x0, symName: __ZN5TokenD1Ev, symObjAddr: 0x10D8, symBinAddr: 0x1000016C0, symSize: 0x2C }
  - { offset: 0x12246, size: 0x8, addend: 0x0, symName: __ZN9JsonValueCI1NSt3__17variantIJDnbdNS0_12basic_stringIcNS0_11char_traitsIcEENS0_9allocatorIcEEEENS0_6vectorIS_NS5_IS_EEEENS0_3mapIS7_S_NS0_4lessIS7_EENS5_INS0_4pairIKS7_S_EEEEEEEEEIbLi0ELi0ELi0EbLm1ELi0EEEOT_, symObjAddr: 0x1104, symBinAddr: 0x1000016EC, symSize: 0x34 }
  - { offset: 0x1227B, size: 0x8, addend: 0x0, symName: __ZN9JsonValueC1Ev, symObjAddr: 0x1138, symBinAddr: 0x100001720, symSize: 0x2C }
  - { offset: 0x122A7, size: 0x8, addend: 0x0, symName: __ZNSt3__13mapINS_12basic_stringIcNS_11char_traitsIcEENS_9allocatorIcEEEE9JsonValueNS_4lessIS6_EENS4_INS_4pairIKS6_S7_EEEEEC1B8ne180100Ev, symObjAddr: 0x1164, symBinAddr: 0x10000174C, symSize: 0x2C }
  - { offset: 0x122D1, size: 0x8, addend: 0x0, symName: __ZNSt3__13mapINS_12basic_stringIcNS_11char_traitsIcEENS_9allocatorIcEEEE9JsonValueNS_4lessIS6_EENS4_INS_4pairIKS6_S7_EEEEEixERSB_, symObjAddr: 0x1190, symBinAddr: 0x100001778, symSize: 0x80 }
  - { offset: 0x12308, size: 0x8, addend: 0x0, symName: __ZN9JsonValueaSERKS_, symObjAddr: 0x1210, symBinAddr: 0x1000017F8, symSize: 0x34 }
  - { offset: 0x12339, size: 0x8, addend: 0x0, symName: __ZN9JsonValueCI1NSt3__17variantIJDnbdNS0_12basic_stringIcNS0_11char_traitsIcEENS0_9allocatorIcEEEENS0_6vectorIS_NS5_IS_EEEENS0_3mapIS7_S_NS0_4lessIS7_EENS5_INS0_4pairIKS7_S_EEEEEEEEEIRSI_Li0ELi0ELi0ESI_Lm5ELi0EEEOT_, symObjAddr: 0x1244, symBinAddr: 0x10000182C, symSize: 0x34 }
  - { offset: 0x1236E, size: 0x8, addend: 0x0, symName: __ZNSt3__13mapINS_12basic_stringIcNS_11char_traitsIcEENS_9allocatorIcEEEE9JsonValueNS_4lessIS6_EENS4_INS_4pairIKS6_S7_EEEEED1B8ne180100Ev, symObjAddr: 0x1278, symBinAddr: 0x100001860, symSize: 0x2C }
  - { offset: 0x12398, size: 0x8, addend: 0x0, symName: __ZNSt3__13mapINS_12basic_stringIcNS_11char_traitsIcEENS_9allocatorIcEEEE9JsonValueNS_4lessIS6_EENS4_INS_4pairIKS6_S7_EEEEEC2B8ne180100Ev, symObjAddr: 0x12A4, symBinAddr: 0x10000188C, symSize: 0x40 }
  - { offset: 0x123C2, size: 0x8, addend: 0x0, symName: __ZNSt3__119__map_value_compareINS_12basic_stringIcNS_11char_traitsIcEENS_9allocatorIcEEEENS_12__value_typeIS6_9JsonValueEENS_4lessIS6_EELb1EEC1B8ne180100ESB_, symObjAddr: 0x12E4, symBinAddr: 0x1000018CC, symSize: 0x2C }
  - { offset: 0x123FB, size: 0x8, addend: 0x0, symName: __ZNSt3__16__treeINS_12__value_typeINS_12basic_stringIcNS_11char_traitsIcEENS_9allocatorIcEEEE9JsonValueEENS_19__map_value_compareIS7_S9_NS_4lessIS7_EELb1EEENS5_IS9_EEEC1ERKSD_, symObjAddr: 0x1310, symBinAddr: 0x1000018F8, symSize: 0x34 }
  - { offset: 0x12436, size: 0x8, addend: 0x0, symName: __ZNSt3__119__map_value_compareINS_12basic_stringIcNS_11char_traitsIcEENS_9allocatorIcEEEENS_12__value_typeIS6_9JsonValueEENS_4lessIS6_EELb1EEC2B8ne180100ESB_, symObjAddr: 0x1344, symBinAddr: 0x10000192C, symSize: 0x14 }
  - { offset: 0x1246F, size: 0x8, addend: 0x0, symName: __ZNSt3__16__treeINS_12__value_typeINS_12basic_stringIcNS_11char_traitsIcEENS_9allocatorIcEEEE9JsonValueEENS_19__map_value_compareIS7_S9_NS_4lessIS7_EELb1EEENS5_IS9_EEEC2ERKSD_, symObjAddr: 0x1358, symBinAddr: 0x100001940, symSize: 0x7C }
  - { offset: 0x124AA, size: 0x8, addend: 0x0, symName: __ZNSt3__117__compressed_pairINS_15__tree_end_nodeIPNS_16__tree_node_baseIPvEEEENS_9allocatorINS_11__tree_nodeINS_12__value_typeINS_12basic_stringIcNS_11char_traitsIcEENS7_IcEEEE9JsonValueEES3_EEEEEC1B8ne180100ILb1EvEEv, symObjAddr: 0x13D4, symBinAddr: 0x1000019BC, symSize: 0x2C }
  - { offset: 0x124E5, size: 0x8, addend: 0x0, symName: __ZNSt3__117__compressed_pairImNS_19__map_value_compareINS_12basic_stringIcNS_11char_traitsIcEENS_9allocatorIcEEEENS_12__value_typeIS7_9JsonValueEENS_4lessIS7_EELb1EEEEC1B8ne180100IiRKSD_EEOT_OT0_, symObjAddr: 0x1400, symBinAddr: 0x1000019E8, symSize: 0x3C }
  - { offset: 0x1253D, size: 0x8, addend: 0x0, symName: __ZNSt3__16__treeINS_12__value_typeINS_12basic_stringIcNS_11char_traitsIcEENS_9allocatorIcEEEE9JsonValueEENS_19__map_value_compareIS7_S9_NS_4lessIS7_EELb1EEENS5_IS9_EEE10__end_nodeB8ne180100Ev, symObjAddr: 0x143C, symBinAddr: 0x100001A24, symSize: 0x2C }
  - { offset: 0x12563, size: 0x8, addend: 0x0, symName: __ZNSt3__16__treeINS_12__value_typeINS_12basic_stringIcNS_11char_traitsIcEENS_9allocatorIcEEEE9JsonValueEENS_19__map_value_compareIS7_S9_NS_4lessIS7_EELb1EEENS5_IS9_EEE12__begin_nodeB8ne180100Ev, symObjAddr: 0x1468, symBinAddr: 0x100001A50, symSize: 0x14 }
  - { offset: 0x12589, size: 0x8, addend: 0x0, symName: __ZNSt3__117__compressed_pairINS_15__tree_end_nodeIPNS_16__tree_node_baseIPvEEEENS_9allocatorINS_11__tree_nodeINS_12__value_typeINS_12basic_stringIcNS_11char_traitsIcEENS7_IcEEEE9JsonValueEES3_EEEEEC2B8ne180100ILb1EvEEv, symObjAddr: 0x147C, symBinAddr: 0x100001A64, symSize: 0x34 }
  - { offset: 0x125BE, size: 0x8, addend: 0x0, symName: __ZNSt3__122__compressed_pair_elemINS_15__tree_end_nodeIPNS_16__tree_node_baseIPvEEEELi0ELb0EEC2B8ne180100ENS_16__value_init_tagE, symObjAddr: 0x14B0, symBinAddr: 0x100001A98, symSize: 0x2C }
  - { offset: 0x125F2, size: 0x8, addend: 0x0, symName: __ZNSt3__122__compressed_pair_elemINS_9allocatorINS_11__tree_nodeINS_12__value_typeINS_12basic_stringIcNS_11char_traitsIcEENS1_IcEEEE9JsonValueEEPvEEEELi1ELb1EEC2B8ne180100ENS_16__value_init_tagE, symObjAddr: 0x14DC, symBinAddr: 0x100001AC4, symSize: 0x2C }
  - { offset: 0x12626, size: 0x8, addend: 0x0, symName: __ZNSt3__115__tree_end_nodeIPNS_16__tree_node_baseIPvEEEC1B8ne180100Ev, symObjAddr: 0x1508, symBinAddr: 0x100001AF0, symSize: 0x2C }
  - { offset: 0x12650, size: 0x8, addend: 0x0, symName: __ZNSt3__115__tree_end_nodeIPNS_16__tree_node_baseIPvEEEC2B8ne180100Ev, symObjAddr: 0x1534, symBinAddr: 0x100001B1C, symSize: 0x18 }
  - { offset: 0x1267A, size: 0x8, addend: 0x0, symName: __ZNSt3__19allocatorINS_11__tree_nodeINS_12__value_typeINS_12basic_stringIcNS_11char_traitsIcEENS0_IcEEEE9JsonValueEEPvEEEC2B8ne180100Ev, symObjAddr: 0x154C, symBinAddr: 0x100001B34, symSize: 0x2C }
  - { offset: 0x126A4, size: 0x8, addend: 0x0, symName: __ZNSt3__116__non_trivial_ifILb1ENS_9allocatorINS_11__tree_nodeINS_12__value_typeINS_12basic_stringIcNS_11char_traitsIcEENS1_IcEEEE9JsonValueEEPvEEEEEC2B8ne180100Ev, symObjAddr: 0x1578, symBinAddr: 0x100001B60, symSize: 0x14 }
  - { offset: 0x126CE, size: 0x8, addend: 0x0, symName: __ZNSt3__117__compressed_pairImNS_19__map_value_compareINS_12basic_stringIcNS_11char_traitsIcEENS_9allocatorIcEEEENS_12__value_typeIS7_9JsonValueEENS_4lessIS7_EELb1EEEEC2B8ne180100IiRKSD_EEOT_OT0_, symObjAddr: 0x158C, symBinAddr: 0x100001B74, symSize: 0x44 }
  - { offset: 0x12726, size: 0x8, addend: 0x0, symName: __ZNSt3__122__compressed_pair_elemImLi0ELb0EEC2B8ne180100IivEEOT_, symObjAddr: 0x15D0, symBinAddr: 0x100001BB8, symSize: 0x24 }
  - { offset: 0x12768, size: 0x8, addend: 0x0, symName: __ZNSt3__122__compressed_pair_elemINS_19__map_value_compareINS_12basic_stringIcNS_11char_traitsIcEENS_9allocatorIcEEEENS_12__value_typeIS7_9JsonValueEENS_4lessIS7_EELb1EEELi1ELb1EEC2B8ne180100IRKSD_vEEOT_, symObjAddr: 0x15F4, symBinAddr: 0x100001BDC, symSize: 0x18 }
  - { offset: 0x127AA, size: 0x8, addend: 0x0, symName: __ZNSt3__114pointer_traitsIPNS_15__tree_end_nodeIPNS_16__tree_node_baseIPvEEEEE10pointer_toB8ne180100ERS6_, symObjAddr: 0x160C, symBinAddr: 0x100001BF4, symSize: 0x14 }
  - { offset: 0x127CD, size: 0x8, addend: 0x0, symName: __ZNSt3__117__compressed_pairINS_15__tree_end_nodeIPNS_16__tree_node_baseIPvEEEENS_9allocatorINS_11__tree_nodeINS_12__value_typeINS_12basic_stringIcNS_11char_traitsIcEENS7_IcEEEE9JsonValueEES3_EEEEE5firstB8ne180100Ev, symObjAddr: 0x1620, symBinAddr: 0x100001C08, symSize: 0x24 }
  - { offset: 0x127F3, size: 0x8, addend: 0x0, symName: __ZNSt3__122__compressed_pair_elemINS_15__tree_end_nodeIPNS_16__tree_node_baseIPvEEEELi0ELb0EE5__getB8ne180100Ev, symObjAddr: 0x1644, symBinAddr: 0x100001C2C, symSize: 0x14 }
  - { offset: 0x12831, size: 0x8, addend: 0x0, symName: __ZNSt3__16__treeINS_12__value_typeINS_12basic_stringIcNS_11char_traitsIcEENS_9allocatorIcEEEE9JsonValueEENS_19__map_value_compareIS7_S9_NS_4lessIS7_EELb1EEENS5_IS9_EEE25__emplace_unique_key_argsIS7_JRKNS_21piecewise_construct_tENS_5tupleIJRKS7_EEENSK_IJEEEEEENS_4pairINS_15__tree_iteratorIS9_PNS_11__tree_nodeIS9_PvEElEEbEERKT_DpOT0_, symObjAddr: 0x1658, symBinAddr: 0x100001C40, symSize: 0x100 }
  - { offset: 0x12907, size: 0x8, addend: 0x0, symName: __ZNKSt3__115__tree_iteratorINS_12__value_typeINS_12basic_stringIcNS_11char_traitsIcEENS_9allocatorIcEEEE9JsonValueEEPNS_11__tree_nodeIS9_PvEElEptB8ne180100Ev, symObjAddr: 0x1788, symBinAddr: 0x100001D70, symSize: 0x2C }
  - { offset: 0x1292D, size: 0x8, addend: 0x0, symName: __ZNSt3__112__value_typeINS_12basic_stringIcNS_11char_traitsIcEENS_9allocatorIcEEEE9JsonValueE11__get_valueB8ne180100Ev, symObjAddr: 0x17B4, symBinAddr: 0x100001D9C, symSize: 0x24 }
  - { offset: 0x12953, size: 0x8, addend: 0x0, symName: __ZNSt3__16__treeINS_12__value_typeINS_12basic_stringIcNS_11char_traitsIcEENS_9allocatorIcEEEE9JsonValueEENS_19__map_value_compareIS7_S9_NS_4lessIS7_EELb1EEENS5_IS9_EEE12__find_equalIS7_EERPNS_16__tree_node_baseIPvEERPNS_15__tree_end_nodeISK_EERKT_, symObjAddr: 0x17D8, symBinAddr: 0x100001DC0, symSize: 0x184 }
  - { offset: 0x129C0, size: 0x8, addend: 0x0, symName: __ZNSt3__16__treeINS_12__value_typeINS_12basic_stringIcNS_11char_traitsIcEENS_9allocatorIcEEEE9JsonValueEENS_19__map_value_compareIS7_S9_NS_4lessIS7_EELb1EEENS5_IS9_EEE16__construct_nodeIJRKNS_21piecewise_construct_tENS_5tupleIJRKS7_EEENSK_IJEEEEEENS_10unique_ptrINS_11__tree_nodeIS9_PvEENS_22__tree_node_destructorINS5_ISS_EEEEEEDpOT_, symObjAddr: 0x195C, symBinAddr: 0x100001F44, symSize: 0x120 }
  - { offset: 0x12A49, size: 0x8, addend: 0x0, symName: __ZNSt3__16__treeINS_12__value_typeINS_12basic_stringIcNS_11char_traitsIcEENS_9allocatorIcEEEE9JsonValueEENS_19__map_value_compareIS7_S9_NS_4lessIS7_EELb1EEENS5_IS9_EEE16__insert_node_atEPNS_15__tree_end_nodeIPNS_16__tree_node_baseIPvEEEERSK_SK_, symObjAddr: 0x1A7C, symBinAddr: 0x100002064, symSize: 0xCC }
  - { offset: 0x12A9E, size: 0x8, addend: 0x0, symName: __ZNKSt3__110unique_ptrINS_11__tree_nodeINS_12__value_typeINS_12basic_stringIcNS_11char_traitsIcEENS_9allocatorIcEEEE9JsonValueEEPvEENS_22__tree_node_destructorINS6_ISC_EEEEE3getB8ne180100Ev, symObjAddr: 0x1B48, symBinAddr: 0x100002130, symSize: 0x28 }
  - { offset: 0x12AC4, size: 0x8, addend: 0x0, symName: __ZNSt3__110unique_ptrINS_11__tree_nodeINS_12__value_typeINS_12basic_stringIcNS_11char_traitsIcEENS_9allocatorIcEEEE9JsonValueEEPvEENS_22__tree_node_destructorINS6_ISC_EEEEE7releaseB8ne180100Ev, symObjAddr: 0x1B70, symBinAddr: 0x100002158, symSize: 0x44 }
  - { offset: 0x12AF9, size: 0x8, addend: 0x0, symName: __ZNSt3__110unique_ptrINS_11__tree_nodeINS_12__value_typeINS_12basic_stringIcNS_11char_traitsIcEENS_9allocatorIcEEEE9JsonValueEEPvEENS_22__tree_node_destructorINS6_ISC_EEEEED1B8ne180100Ev, symObjAddr: 0x1BB4, symBinAddr: 0x10000219C, symSize: 0x2C }
  - { offset: 0x12B23, size: 0x8, addend: 0x0, symName: __ZNSt3__115__tree_iteratorINS_12__value_typeINS_12basic_stringIcNS_11char_traitsIcEENS_9allocatorIcEEEE9JsonValueEEPNS_11__tree_nodeIS9_PvEElEC1B8ne180100ESD_, symObjAddr: 0x1BE0, symBinAddr: 0x1000021C8, symSize: 0x34 }
  - { offset: 0x12B68, size: 0x8, addend: 0x0, symName: __ZNSt3__14pairINS_15__tree_iteratorINS_12__value_typeINS_12basic_stringIcNS_11char_traitsIcEENS_9allocatorIcEEEE9JsonValueEEPNS_11__tree_nodeISA_PvEElEEbEC1B8ne180100ISF_RbLi0EEEOT_OT0_, symObjAddr: 0x1C14, symBinAddr: 0x1000021FC, symSize: 0x3C }
  - { offset: 0x12BC6, size: 0x8, addend: 0x0, symName: __ZNKSt3__16__treeINS_12__value_typeINS_12basic_stringIcNS_11char_traitsIcEENS_9allocatorIcEEEE9JsonValueEENS_19__map_value_compareIS7_S9_NS_4lessIS7_EELb1EEENS5_IS9_EEE6__rootB8ne180100Ev, symObjAddr: 0x1C50, symBinAddr: 0x100002238, symSize: 0x28 }
  - { offset: 0x12BEC, size: 0x8, addend: 0x0, symName: __ZNKSt3__16__treeINS_12__value_typeINS_12basic_stringIcNS_11char_traitsIcEENS_9allocatorIcEEEE9JsonValueEENS_19__map_value_compareIS7_S9_NS_4lessIS7_EELb1EEENS5_IS9_EEE10__root_ptrB8ne180100Ev, symObjAddr: 0x1C78, symBinAddr: 0x100002260, symSize: 0x24 }
  - { offset: 0x12C12, size: 0x8, addend: 0x0, symName: __ZNSt3__16__treeINS_12__value_typeINS_12basic_stringIcNS_11char_traitsIcEENS_9allocatorIcEEEE9JsonValueEENS_19__map_value_compareIS7_S9_NS_4lessIS7_EELb1EEENS5_IS9_EEE10value_compB8ne180100Ev, symObjAddr: 0x1C9C, symBinAddr: 0x100002284, symSize: 0x28 }
  - { offset: 0x12C38, size: 0x8, addend: 0x0, symName: __ZNKSt3__119__map_value_compareINS_12basic_stringIcNS_11char_traitsIcEENS_9allocatorIcEEEENS_12__value_typeIS6_9JsonValueEENS_4lessIS6_EELb1EEclB8ne180100ERKS6_RKS9_, symObjAddr: 0x1CC4, symBinAddr: 0x1000022AC, symSize: 0x50 }
  - { offset: 0x12C7C, size: 0x8, addend: 0x0, symName: __ZNKSt3__119__map_value_compareINS_12basic_stringIcNS_11char_traitsIcEENS_9allocatorIcEEEENS_12__value_typeIS6_9JsonValueEENS_4lessIS6_EELb1EEclB8ne180100ERKS9_RKS6_, symObjAddr: 0x1D14, symBinAddr: 0x1000022FC, symSize: 0x48 }
  - { offset: 0x12CC0, size: 0x8, addend: 0x0, symName: __ZNKSt3__16__treeINS_12__value_typeINS_12basic_stringIcNS_11char_traitsIcEENS_9allocatorIcEEEE9JsonValueEENS_19__map_value_compareIS7_S9_NS_4lessIS7_EELb1EEENS5_IS9_EEE10__end_nodeB8ne180100Ev, symObjAddr: 0x1D5C, symBinAddr: 0x100002344, symSize: 0x2C }
  - { offset: 0x12CE6, size: 0x8, addend: 0x0, symName: __ZNKSt3__117__compressed_pairINS_15__tree_end_nodeIPNS_16__tree_node_baseIPvEEEENS_9allocatorINS_11__tree_nodeINS_12__value_typeINS_12basic_stringIcNS_11char_traitsIcEENS7_IcEEEE9JsonValueEES3_EEEEE5firstB8ne180100Ev, symObjAddr: 0x1D88, symBinAddr: 0x100002370, symSize: 0x24 }
  - { offset: 0x12D0C, size: 0x8, addend: 0x0, symName: __ZNKSt3__122__compressed_pair_elemINS_15__tree_end_nodeIPNS_16__tree_node_baseIPvEEEELi0ELb0EE5__getB8ne180100Ev, symObjAddr: 0x1DAC, symBinAddr: 0x100002394, symSize: 0x14 }
  - { offset: 0x12D32, size: 0x8, addend: 0x0, symName: __ZNSt3__117__compressed_pairImNS_19__map_value_compareINS_12basic_stringIcNS_11char_traitsIcEENS_9allocatorIcEEEENS_12__value_typeIS7_9JsonValueEENS_4lessIS7_EELb1EEEE6secondB8ne180100Ev, symObjAddr: 0x1DC0, symBinAddr: 0x1000023A8, symSize: 0x24 }
  - { offset: 0x12D58, size: 0x8, addend: 0x0, symName: __ZNSt3__122__compressed_pair_elemINS_19__map_value_compareINS_12basic_stringIcNS_11char_traitsIcEENS_9allocatorIcEEEENS_12__value_typeIS7_9JsonValueEENS_4lessIS7_EELb1EEELi1ELb1EE5__getB8ne180100Ev, symObjAddr: 0x1DE4, symBinAddr: 0x1000023CC, symSize: 0x14 }
  - { offset: 0x12D7E, size: 0x8, addend: 0x0, symName: __ZNKSt3__14lessINS_12basic_stringIcNS_11char_traitsIcEENS_9allocatorIcEEEEEclB8ne180100ERKS6_S9_, symObjAddr: 0x1DF8, symBinAddr: 0x1000023E0, symSize: 0x34 }
  - { offset: 0x12DC2, size: 0x8, addend: 0x0, symName: __ZNKSt3__112__value_typeINS_12basic_stringIcNS_11char_traitsIcEENS_9allocatorIcEEEE9JsonValueE11__get_valueB8ne180100Ev, symObjAddr: 0x1E2C, symBinAddr: 0x100002414, symSize: 0x24 }
  - { offset: 0x12DE8, size: 0x8, addend: 0x0, symName: __ZNKSt3__112basic_stringIcNS_11char_traitsIcEENS_9allocatorIcEEE7compareB8ne180100ERKS5_, symObjAddr: 0x1E88, symBinAddr: 0x100002470, symSize: 0x4C }
  - { offset: 0x12E1F, size: 0x8, addend: 0x0, symName: __ZNKSt3__112basic_stringIcNS_11char_traitsIcEENS_9allocatorIcEEE7compareINS_17basic_string_viewIcS2_EELi0EEEiRKT_, symObjAddr: 0x1ED4, symBinAddr: 0x1000024BC, symSize: 0x12C }
  - { offset: 0x12EA2, size: 0x8, addend: 0x0, symName: __ZNKSt3__112basic_stringIcNS_11char_traitsIcEENS_9allocatorIcEEEcvNS_17basic_string_viewIcS2_EEB8ne180100Ev, symObjAddr: 0x2000, symBinAddr: 0x1000025E8, symSize: 0x50 }
  - { offset: 0x12EC8, size: 0x8, addend: 0x0, symName: __ZNKSt3__112basic_stringIcNS_11char_traitsIcEENS_9allocatorIcEEE4sizeB8ne180100Ev, symObjAddr: 0x2050, symBinAddr: 0x100002638, symSize: 0x54 }
  - { offset: 0x12EEE, size: 0x8, addend: 0x0, symName: __ZNKSt3__117basic_string_viewIcNS_11char_traitsIcEEE4sizeB8ne180100Ev, symObjAddr: 0x20A4, symBinAddr: 0x10000268C, symSize: 0x18 }
  - { offset: 0x12F14, size: 0x8, addend: 0x0, symName: __ZNSt3__111char_traitsIcE7compareB8ne180100EPKcS3_m, symObjAddr: 0x20BC, symBinAddr: 0x1000026A4, symSize: 0x34 }
  - { offset: 0x12F53, size: 0x8, addend: 0x0, symName: __ZNKSt3__112basic_stringIcNS_11char_traitsIcEENS_9allocatorIcEEE4dataB8ne180100Ev, symObjAddr: 0x20F0, symBinAddr: 0x1000026D8, symSize: 0x28 }
  - { offset: 0x12F79, size: 0x8, addend: 0x0, symName: __ZNKSt3__117basic_string_viewIcNS_11char_traitsIcEEE4dataB8ne180100Ev, symObjAddr: 0x2118, symBinAddr: 0x100002700, symSize: 0x18 }
  - { offset: 0x12F9F, size: 0x8, addend: 0x0, symName: __ZNKSt3__112basic_stringIcNS_11char_traitsIcEENS_9allocatorIcEEE9__is_longB8ne180100Ev, symObjAddr: 0x215C, symBinAddr: 0x100002744, symSize: 0x38 }
  - { offset: 0x12FC5, size: 0x8, addend: 0x0, symName: __ZNKSt3__112basic_stringIcNS_11char_traitsIcEENS_9allocatorIcEEE15__get_long_sizeB8ne180100Ev, symObjAddr: 0x2194, symBinAddr: 0x10000277C, symSize: 0x28 }
  - { offset: 0x12FEB, size: 0x8, addend: 0x0, symName: __ZNKSt3__112basic_stringIcNS_11char_traitsIcEENS_9allocatorIcEEE16__get_short_sizeB8ne180100Ev, symObjAddr: 0x21BC, symBinAddr: 0x1000027A4, symSize: 0x34 }
  - { offset: 0x13011, size: 0x8, addend: 0x0, symName: __ZNKSt3__117__compressed_pairINS_12basic_stringIcNS_11char_traitsIcEENS_9allocatorIcEEE5__repES5_E5firstB8ne180100Ev, symObjAddr: 0x21F0, symBinAddr: 0x1000027D8, symSize: 0x24 }
  - { offset: 0x13037, size: 0x8, addend: 0x0, symName: __ZNKSt3__122__compressed_pair_elemINS_12basic_stringIcNS_11char_traitsIcEENS_9allocatorIcEEE5__repELi0ELb0EE5__getB8ne180100Ev, symObjAddr: 0x2214, symBinAddr: 0x1000027FC, symSize: 0x14 }
  - { offset: 0x1305D, size: 0x8, addend: 0x0, symName: __ZNKSt3__112basic_stringIcNS_11char_traitsIcEENS_9allocatorIcEEE13__get_pointerB8ne180100Ev, symObjAddr: 0x223C, symBinAddr: 0x100002824, symSize: 0x54 }
  - { offset: 0x13083, size: 0x8, addend: 0x0, symName: __ZNKSt3__112basic_stringIcNS_11char_traitsIcEENS_9allocatorIcEEE18__get_long_pointerB8ne180100Ev, symObjAddr: 0x2290, symBinAddr: 0x100002878, symSize: 0x28 }
  - { offset: 0x130A9, size: 0x8, addend: 0x0, symName: __ZNKSt3__112basic_stringIcNS_11char_traitsIcEENS_9allocatorIcEEE19__get_short_pointerB8ne180100Ev, symObjAddr: 0x22B8, symBinAddr: 0x1000028A0, symSize: 0x28 }
  - { offset: 0x130CF, size: 0x8, addend: 0x0, symName: __ZNSt3__114pointer_traitsIPKcE10pointer_toB8ne180100ERS1_, symObjAddr: 0x22E0, symBinAddr: 0x1000028C8, symSize: 0x14 }
  - { offset: 0x130FD, size: 0x8, addend: 0x0, symName: __ZNKSt3__16__lessIvvEclB8ne180100ImmEEbRKT_RKT0_, symObjAddr: 0x2348, symBinAddr: 0x100002930, symSize: 0x34 }
  - { offset: 0x13151, size: 0x8, addend: 0x0, symName: __ZNSt3__117basic_string_viewIcNS_11char_traitsIcEEEC1B8ne180100EPKcm, symObjAddr: 0x237C, symBinAddr: 0x100002964, symSize: 0x3C }
  - { offset: 0x13199, size: 0x8, addend: 0x0, symName: __ZNSt3__117basic_string_viewIcNS_11char_traitsIcEEEC2B8ne180100EPKcm, symObjAddr: 0x23B8, symBinAddr: 0x1000029A0, symSize: 0x2C }
  - { offset: 0x131E1, size: 0x8, addend: 0x0, symName: __ZNSt3__16__treeINS_12__value_typeINS_12basic_stringIcNS_11char_traitsIcEENS_9allocatorIcEEEE9JsonValueEENS_19__map_value_compareIS7_S9_NS_4lessIS7_EELb1EEENS5_IS9_EEE12__node_allocB8ne180100Ev, symObjAddr: 0x241C, symBinAddr: 0x100002A04, symSize: 0x28 }
  - { offset: 0x13207, size: 0x8, addend: 0x0, symName: __ZNSt3__116allocator_traitsINS_9allocatorINS_11__tree_nodeINS_12__value_typeINS_12basic_stringIcNS_11char_traitsIcEENS1_IcEEEE9JsonValueEEPvEEEEE8allocateB8ne180100ERSD_m, symObjAddr: 0x2444, symBinAddr: 0x100002A2C, symSize: 0x2C }
  - { offset: 0x1323A, size: 0x8, addend: 0x0, symName: __ZNSt3__122__tree_node_destructorINS_9allocatorINS_11__tree_nodeINS_12__value_typeINS_12basic_stringIcNS_11char_traitsIcEENS1_IcEEEE9JsonValueEEPvEEEEEC1B8ne180100ERSD_b, symObjAddr: 0x2470, symBinAddr: 0x100002A58, symSize: 0x48 }
  - { offset: 0x13288, size: 0x8, addend: 0x0, symName: __ZNSt3__110unique_ptrINS_11__tree_nodeINS_12__value_typeINS_12basic_stringIcNS_11char_traitsIcEENS_9allocatorIcEEEE9JsonValueEEPvEENS_22__tree_node_destructorINS6_ISC_EEEEEC1B8ne180100ILb1EvEEPSC_NS_16__dependent_typeINS_27__unique_ptr_deleter_sfinaeISF_EEXT_EE20__good_rval_ref_typeE, symObjAddr: 0x24B8, symBinAddr: 0x100002AA0, symSize: 0x3C }
  - { offset: 0x132D9, size: 0x8, addend: 0x0, symName: __ZNSt3__116allocator_traitsINS_9allocatorINS_11__tree_nodeINS_12__value_typeINS_12basic_stringIcNS_11char_traitsIcEENS1_IcEEEE9JsonValueEEPvEEEEE9constructB8ne180100INS_4pairIKS8_S9_EEJRKNS_21piecewise_construct_tENS_5tupleIJRSH_EEENSM_IJEEEEvEEvRSD_PT_DpOT0_, symObjAddr: 0x24F4, symBinAddr: 0x100002ADC, symSize: 0x44 }
  - { offset: 0x13358, size: 0x8, addend: 0x0, symName: __ZNSt3__122__tree_key_value_typesINS_12__value_typeINS_12basic_stringIcNS_11char_traitsIcEENS_9allocatorIcEEEE9JsonValueEEE9__get_ptrB8ne180100ERS9_, symObjAddr: 0x2538, symBinAddr: 0x100002B20, symSize: 0x24 }
  - { offset: 0x1337C, size: 0x8, addend: 0x0, symName: __ZNKSt3__110unique_ptrINS_11__tree_nodeINS_12__value_typeINS_12basic_stringIcNS_11char_traitsIcEENS_9allocatorIcEEEE9JsonValueEEPvEENS_22__tree_node_destructorINS6_ISC_EEEEEptB8ne180100Ev, symObjAddr: 0x255C, symBinAddr: 0x100002B44, symSize: 0x28 }
  - { offset: 0x133A2, size: 0x8, addend: 0x0, symName: __ZNSt3__110unique_ptrINS_11__tree_nodeINS_12__value_typeINS_12basic_stringIcNS_11char_traitsIcEENS_9allocatorIcEEEE9JsonValueEEPvEENS_22__tree_node_destructorINS6_ISC_EEEEE11get_deleterB8ne180100Ev, symObjAddr: 0x2584, symBinAddr: 0x100002B6C, symSize: 0x24 }
  - { offset: 0x133C8, size: 0x8, addend: 0x0, symName: __ZNSt3__117__compressed_pairINS_15__tree_end_nodeIPNS_16__tree_node_baseIPvEEEENS_9allocatorINS_11__tree_nodeINS_12__value_typeINS_12basic_stringIcNS_11char_traitsIcEENS7_IcEEEE9JsonValueEES3_EEEEE6secondB8ne180100Ev, symObjAddr: 0x25A8, symBinAddr: 0x100002B90, symSize: 0x24 }
  - { offset: 0x133EE, size: 0x8, addend: 0x0, symName: __ZNSt3__122__compressed_pair_elemINS_9allocatorINS_11__tree_nodeINS_12__value_typeINS_12basic_stringIcNS_11char_traitsIcEENS1_IcEEEE9JsonValueEEPvEEEELi1ELb1EE5__getB8ne180100Ev, symObjAddr: 0x25CC, symBinAddr: 0x100002BB4, symSize: 0x14 }
  - { offset: 0x13414, size: 0x8, addend: 0x0, symName: __ZNSt3__19allocatorINS_11__tree_nodeINS_12__value_typeINS_12basic_stringIcNS_11char_traitsIcEENS0_IcEEEE9JsonValueEEPvEEE8allocateB8ne180100Em, symObjAddr: 0x25E0, symBinAddr: 0x100002BC8, symSize: 0x5C }
  - { offset: 0x13453, size: 0x8, addend: 0x0, symName: __ZNSt3__116allocator_traitsINS_9allocatorINS_11__tree_nodeINS_12__value_typeINS_12basic_stringIcNS_11char_traitsIcEENS1_IcEEEE9JsonValueEEPvEEEEE8max_sizeB8ne180100ISD_vEEmRKSD_, symObjAddr: 0x263C, symBinAddr: 0x100002C24, symSize: 0x24 }
  - { offset: 0x13481, size: 0x8, addend: 0x0, symName: __ZNKSt3__19allocatorINS_11__tree_nodeINS_12__value_typeINS_12basic_stringIcNS_11char_traitsIcEENS0_IcEEEE9JsonValueEEPvEEE8max_sizeB8ne180100Ev, symObjAddr: 0x26F4, symBinAddr: 0x100002CDC, symSize: 0x20 }
  - { offset: 0x134A7, size: 0x8, addend: 0x0, symName: __ZNSt3__122__tree_node_destructorINS_9allocatorINS_11__tree_nodeINS_12__value_typeINS_12basic_stringIcNS_11char_traitsIcEENS1_IcEEEE9JsonValueEEPvEEEEEC2B8ne180100ERSD_b, symObjAddr: 0x2784, symBinAddr: 0x100002D6C, symSize: 0x38 }
  - { offset: 0x134EF, size: 0x8, addend: 0x0, symName: __ZNSt3__110unique_ptrINS_11__tree_nodeINS_12__value_typeINS_12basic_stringIcNS_11char_traitsIcEENS_9allocatorIcEEEE9JsonValueEEPvEENS_22__tree_node_destructorINS6_ISC_EEEEEC2B8ne180100ILb1EvEEPSC_NS_16__dependent_typeINS_27__unique_ptr_deleter_sfinaeISF_EEXT_EE20__good_rval_ref_typeE, symObjAddr: 0x27BC, symBinAddr: 0x100002DA4, symSize: 0x48 }
  - { offset: 0x13540, size: 0x8, addend: 0x0, symName: __ZNSt3__117__compressed_pairIPNS_11__tree_nodeINS_12__value_typeINS_12basic_stringIcNS_11char_traitsIcEENS_9allocatorIcEEEE9JsonValueEEPvEENS_22__tree_node_destructorINS6_ISC_EEEEEC1B8ne180100IRSD_SG_EEOT_OT0_, symObjAddr: 0x2804, symBinAddr: 0x100002DEC, symSize: 0x3C }
  - { offset: 0x13598, size: 0x8, addend: 0x0, symName: __ZNSt3__117__compressed_pairIPNS_11__tree_nodeINS_12__value_typeINS_12basic_stringIcNS_11char_traitsIcEENS_9allocatorIcEEEE9JsonValueEEPvEENS_22__tree_node_destructorINS6_ISC_EEEEEC2B8ne180100IRSD_SG_EEOT_OT0_, symObjAddr: 0x2840, symBinAddr: 0x100002E28, symSize: 0x48 }
  - { offset: 0x135F0, size: 0x8, addend: 0x0, symName: __ZNSt3__122__compressed_pair_elemIPNS_11__tree_nodeINS_12__value_typeINS_12basic_stringIcNS_11char_traitsIcEENS_9allocatorIcEEEE9JsonValueEEPvEELi0ELb0EEC2B8ne180100IRSD_vEEOT_, symObjAddr: 0x2888, symBinAddr: 0x100002E70, symSize: 0x24 }
  - { offset: 0x13632, size: 0x8, addend: 0x0, symName: __ZNSt3__122__compressed_pair_elemINS_22__tree_node_destructorINS_9allocatorINS_11__tree_nodeINS_12__value_typeINS_12basic_stringIcNS_11char_traitsIcEENS2_IcEEEE9JsonValueEEPvEEEEEELi1ELb0EEC2B8ne180100ISF_vEEOT_, symObjAddr: 0x28AC, symBinAddr: 0x100002E94, symSize: 0x24 }
  - { offset: 0x13674, size: 0x8, addend: 0x0, symName: __ZNSt3__19allocatorINS_11__tree_nodeINS_12__value_typeINS_12basic_stringIcNS_11char_traitsIcEENS0_IcEEEE9JsonValueEEPvEEE9constructB8ne180100INS_4pairIKS7_S8_EEJRKNS_21piecewise_construct_tENS_5tupleIJRSF_EEENSK_IJEEEEEEvPT_DpOT0_, symObjAddr: 0x28D0, symBinAddr: 0x100002EB8, symSize: 0x44 }
  - { offset: 0x136F0, size: 0x8, addend: 0x0, symName: __ZNSt3__14pairIKNS_12basic_stringIcNS_11char_traitsIcEENS_9allocatorIcEEEE9JsonValueEC1B8ne180100IJRS7_EJEEENS_21piecewise_construct_tENS_5tupleIJDpT_EEENSD_IJDpT0_EEE, symObjAddr: 0x2914, symBinAddr: 0x100002EFC, symSize: 0x3C }
  - { offset: 0x13757, size: 0x8, addend: 0x0, symName: __ZNSt3__14pairIKNS_12basic_stringIcNS_11char_traitsIcEENS_9allocatorIcEEEE9JsonValueEC1B8ne180100IJRS7_EJEJLm0EEJEEENS_21piecewise_construct_tERNS_5tupleIJDpT_EEERNSD_IJDpT0_EEENS_15__tuple_indicesIJXspT1_EEEENSM_IJXspT2_EEEE, symObjAddr: 0x2950, symBinAddr: 0x100002F38, symSize: 0x3C }
  - { offset: 0x137E7, size: 0x8, addend: 0x0, symName: __ZNSt3__14pairIKNS_12basic_stringIcNS_11char_traitsIcEENS_9allocatorIcEEEE9JsonValueEC2B8ne180100IJRS7_EJEJLm0EEJEEENS_21piecewise_construct_tERNS_5tupleIJDpT_EEERNSD_IJDpT0_EEENS_15__tuple_indicesIJXspT1_EEEENSM_IJXspT2_EEEE, symObjAddr: 0x298C, symBinAddr: 0x100002F74, symSize: 0x5C }
  - { offset: 0x13877, size: 0x8, addend: 0x0, symName: __ZNSt3__112__tuple_leafILm0ERKNS_12basic_stringIcNS_11char_traitsIcEENS_9allocatorIcEEEELb0EE3getB8ne180100Ev, symObjAddr: 0x2A0C, symBinAddr: 0x100002FF4, symSize: 0x18 }
  - { offset: 0x1389D, size: 0x8, addend: 0x0, symName: __ZNKSt3__117__compressed_pairIPNS_11__tree_nodeINS_12__value_typeINS_12basic_stringIcNS_11char_traitsIcEENS_9allocatorIcEEEE9JsonValueEEPvEENS_22__tree_node_destructorINS6_ISC_EEEEE5firstB8ne180100Ev, symObjAddr: 0x2A24, symBinAddr: 0x10000300C, symSize: 0x24 }
  - { offset: 0x138C3, size: 0x8, addend: 0x0, symName: __ZNKSt3__122__compressed_pair_elemIPNS_11__tree_nodeINS_12__value_typeINS_12basic_stringIcNS_11char_traitsIcEENS_9allocatorIcEEEE9JsonValueEEPvEELi0ELb0EE5__getB8ne180100Ev, symObjAddr: 0x2A48, symBinAddr: 0x100003030, symSize: 0x14 }
  - { offset: 0x138E9, size: 0x8, addend: 0x0, symName: __ZNSt3__117__compressed_pairIPNS_11__tree_nodeINS_12__value_typeINS_12basic_stringIcNS_11char_traitsIcEENS_9allocatorIcEEEE9JsonValueEEPvEENS_22__tree_node_destructorINS6_ISC_EEEEE6secondB8ne180100Ev, symObjAddr: 0x2A5C, symBinAddr: 0x100003044, symSize: 0x28 }
  - { offset: 0x1390F, size: 0x8, addend: 0x0, symName: __ZNSt3__122__compressed_pair_elemINS_22__tree_node_destructorINS_9allocatorINS_11__tree_nodeINS_12__value_typeINS_12basic_stringIcNS_11char_traitsIcEENS2_IcEEEE9JsonValueEEPvEEEEEELi1ELb0EE5__getB8ne180100Ev, symObjAddr: 0x2A84, symBinAddr: 0x10000306C, symSize: 0x14 }
  - { offset: 0x13935, size: 0x8, addend: 0x0, symName: __ZNSt3__16__treeINS_12__value_typeINS_12basic_stringIcNS_11char_traitsIcEENS_9allocatorIcEEEE9JsonValueEENS_19__map_value_compareIS7_S9_NS_4lessIS7_EELb1EEENS5_IS9_EEE4sizeB8ne180100Ev, symObjAddr: 0x2DC4, symBinAddr: 0x1000033AC, symSize: 0x28 }
  - { offset: 0x1395B, size: 0x8, addend: 0x0, symName: __ZNKSt3__116__tree_node_baseIPvE15__parent_unsafeB8ne180100Ev, symObjAddr: 0x2DEC, symBinAddr: 0x1000033D4, symSize: 0x18 }
  - { offset: 0x13981, size: 0x8, addend: 0x0, symName: __ZNSt3__116__tree_node_baseIPvE12__set_parentB8ne180100EPS2_, symObjAddr: 0x2FD4, symBinAddr: 0x1000035BC, symSize: 0x20 }
  - { offset: 0x139B6, size: 0x8, addend: 0x0, symName: __ZNSt3__117__compressed_pairImNS_19__map_value_compareINS_12basic_stringIcNS_11char_traitsIcEENS_9allocatorIcEEEENS_12__value_typeIS7_9JsonValueEENS_4lessIS7_EELb1EEEE5firstB8ne180100Ev, symObjAddr: 0x2FF4, symBinAddr: 0x1000035DC, symSize: 0x24 }
  - { offset: 0x139DC, size: 0x8, addend: 0x0, symName: __ZNSt3__122__compressed_pair_elemImLi0ELb0EE5__getB8ne180100Ev, symObjAddr: 0x3018, symBinAddr: 0x100003600, symSize: 0x14 }
  - { offset: 0x13A02, size: 0x8, addend: 0x0, symName: __ZNSt3__117__compressed_pairIPNS_11__tree_nodeINS_12__value_typeINS_12basic_stringIcNS_11char_traitsIcEENS_9allocatorIcEEEE9JsonValueEEPvEENS_22__tree_node_destructorINS6_ISC_EEEEE5firstB8ne180100Ev, symObjAddr: 0x302C, symBinAddr: 0x100003614, symSize: 0x24 }
  - { offset: 0x13A28, size: 0x8, addend: 0x0, symName: __ZNSt3__122__compressed_pair_elemIPNS_11__tree_nodeINS_12__value_typeINS_12basic_stringIcNS_11char_traitsIcEENS_9allocatorIcEEEE9JsonValueEEPvEELi0ELb0EE5__getB8ne180100Ev, symObjAddr: 0x3050, symBinAddr: 0x100003638, symSize: 0x14 }
  - { offset: 0x13A4E, size: 0x8, addend: 0x0, symName: __ZNSt3__110unique_ptrINS_11__tree_nodeINS_12__value_typeINS_12basic_stringIcNS_11char_traitsIcEENS_9allocatorIcEEEE9JsonValueEEPvEENS_22__tree_node_destructorINS6_ISC_EEEEED2B8ne180100Ev, symObjAddr: 0x3064, symBinAddr: 0x10000364C, symSize: 0x30 }
  - { offset: 0x13A78, size: 0x8, addend: 0x0, symName: __ZNSt3__110unique_ptrINS_11__tree_nodeINS_12__value_typeINS_12basic_stringIcNS_11char_traitsIcEENS_9allocatorIcEEEE9JsonValueEEPvEENS_22__tree_node_destructorINS6_ISC_EEEEE5resetB8ne180100EPSC_, symObjAddr: 0x3094, symBinAddr: 0x10000367C, symSize: 0x78 }
  - { offset: 0x13ABC, size: 0x8, addend: 0x0, symName: __ZNSt3__122__tree_node_destructorINS_9allocatorINS_11__tree_nodeINS_12__value_typeINS_12basic_stringIcNS_11char_traitsIcEENS1_IcEEEE9JsonValueEEPvEEEEEclB8ne180100EPSC_, symObjAddr: 0x310C, symBinAddr: 0x1000036F4, symSize: 0x98 }
  - { offset: 0x13AF1, size: 0x8, addend: 0x0, symName: __ZNSt3__116allocator_traitsINS_9allocatorINS_11__tree_nodeINS_12__value_typeINS_12basic_stringIcNS_11char_traitsIcEENS1_IcEEEE9JsonValueEEPvEEEEE7destroyB8ne180100INS_4pairIKS8_S9_EEvvEEvRSD_PT_, symObjAddr: 0x31A4, symBinAddr: 0x10000378C, symSize: 0x28 }
  - { offset: 0x13B2C, size: 0x8, addend: 0x0, symName: __ZNSt3__116allocator_traitsINS_9allocatorINS_11__tree_nodeINS_12__value_typeINS_12basic_stringIcNS_11char_traitsIcEENS1_IcEEEE9JsonValueEEPvEEEEE10deallocateB8ne180100ERSD_PSC_m, symObjAddr: 0x31CC, symBinAddr: 0x1000037B4, symSize: 0x34 }
  - { offset: 0x13B6E, size: 0x8, addend: 0x0, symName: __ZNSt3__14pairIKNS_12basic_stringIcNS_11char_traitsIcEENS_9allocatorIcEEEE9JsonValueED1Ev, symObjAddr: 0x3224, symBinAddr: 0x10000380C, symSize: 0x2C }
  - { offset: 0x13B9A, size: 0x8, addend: 0x0, symName: __ZNSt3__14pairIKNS_12basic_stringIcNS_11char_traitsIcEENS_9allocatorIcEEEE9JsonValueED2Ev, symObjAddr: 0x3250, symBinAddr: 0x100003838, symSize: 0x38 }
  - { offset: 0x13BC6, size: 0x8, addend: 0x0, symName: __ZNSt3__19allocatorINS_11__tree_nodeINS_12__value_typeINS_12basic_stringIcNS_11char_traitsIcEENS0_IcEEEE9JsonValueEEPvEEE10deallocateB8ne180100EPSB_m, symObjAddr: 0x3288, symBinAddr: 0x100003870, symSize: 0x44 }
  - { offset: 0x13C08, size: 0x8, addend: 0x0, symName: __ZNSt3__115__tree_iteratorINS_12__value_typeINS_12basic_stringIcNS_11char_traitsIcEENS_9allocatorIcEEEE9JsonValueEEPNS_11__tree_nodeIS9_PvEElEC2B8ne180100ESD_, symObjAddr: 0x33D4, symBinAddr: 0x1000039BC, symSize: 0x20 }
  - { offset: 0x13C41, size: 0x8, addend: 0x0, symName: __ZNSt3__14pairINS_15__tree_iteratorINS_12__value_typeINS_12basic_stringIcNS_11char_traitsIcEENS_9allocatorIcEEEE9JsonValueEEPNS_11__tree_nodeISA_PvEElEEbEC2B8ne180100ISF_RbLi0EEEOT_OT0_, symObjAddr: 0x33F4, symBinAddr: 0x1000039DC, symSize: 0x38 }
  - { offset: 0x13C9F, size: 0x8, addend: 0x0, symName: __ZNSt3__15tupleIJRKNS_12basic_stringIcNS_11char_traitsIcEENS_9allocatorIcEEEEEEC1B8ne180100INS_4_AndELi0EEES8_, symObjAddr: 0x342C, symBinAddr: 0x100003A14, symSize: 0x34 }
  - { offset: 0x13CE7, size: 0x8, addend: 0x0, symName: __ZNSt3__15tupleIJRKNS_12basic_stringIcNS_11char_traitsIcEENS_9allocatorIcEEEEEEC2B8ne180100INS_4_AndELi0EEES8_, symObjAddr: 0x3460, symBinAddr: 0x100003A48, symSize: 0x34 }
  - { offset: 0x13D2F, size: 0x8, addend: 0x0, symName: __ZNSt3__112__tuple_implINS_15__tuple_indicesIJLm0EEEEJRKNS_12basic_stringIcNS_11char_traitsIcEENS_9allocatorIcEEEEEEC1B8ne180100IJLm0EEJSA_EJEJEJSA_EEENS1_IJXspT_EEEENS_13__tuple_typesIJDpT0_EEENS1_IJXspT1_EEEENSE_IJDpT2_EEEDpOT3_, symObjAddr: 0x3494, symBinAddr: 0x100003A7C, symSize: 0x34 }
  - { offset: 0x13DC4, size: 0x8, addend: 0x0, symName: __ZNSt3__112__tuple_implINS_15__tuple_indicesIJLm0EEEEJRKNS_12basic_stringIcNS_11char_traitsIcEENS_9allocatorIcEEEEEEC2B8ne180100IJLm0EEJSA_EJEJEJSA_EEENS1_IJXspT_EEEENS_13__tuple_typesIJDpT0_EEENS1_IJXspT1_EEEENSE_IJDpT2_EEEDpOT3_, symObjAddr: 0x34C8, symBinAddr: 0x100003AB0, symSize: 0x34 }
  - { offset: 0x13E59, size: 0x8, addend: 0x0, symName: __ZNSt3__112__tuple_leafILm0ERKNS_12basic_stringIcNS_11char_traitsIcEENS_9allocatorIcEEEELb0EEC2B8ne180100IS8_vEEOT_, symObjAddr: 0x34FC, symBinAddr: 0x100003AE4, symSize: 0x20 }
  - { offset: 0x13E9C, size: 0x8, addend: 0x0, symName: __ZNSt3__114pointer_traitsIPNS_12__value_typeINS_12basic_stringIcNS_11char_traitsIcEENS_9allocatorIcEEEE9JsonValueEEE10pointer_toB8ne180100ERS9_, symObjAddr: 0x351C, symBinAddr: 0x100003B04, symSize: 0x14 }
  - { offset: 0x13EBF, size: 0x8, addend: 0x0, symName: __ZNKSt3__115__tree_iteratorINS_12__value_typeINS_12basic_stringIcNS_11char_traitsIcEENS_9allocatorIcEEEE9JsonValueEEPNS_11__tree_nodeIS9_PvEElE8__get_npB8ne180100Ev, symObjAddr: 0x3530, symBinAddr: 0x100003B18, symSize: 0x18 }
  - { offset: 0x13EE5, size: 0x8, addend: 0x0, symName: __ZNSt3__17variantIJDnbdNS_12basic_stringIcNS_11char_traitsIcEENS_9allocatorIcEEEENS_6vectorI9JsonValueNS4_IS8_EEEENS_3mapIS6_S8_NS_4lessIS6_EENS4_INS_4pairIKS6_S8_EEEEEEEEaSB8ne180100ERKSJ_, symObjAddr: 0x3580, symBinAddr: 0x100003B68, symSize: 0x34 }
  - { offset: 0x13F17, size: 0x8, addend: 0x0, symName: __ZNSt3__116__variant_detail6__implIJDnbdNS_12basic_stringIcNS_11char_traitsIcEENS_9allocatorIcEEEENS_6vectorI9JsonValueNS5_IS9_EEEENS_3mapIS7_S9_NS_4lessIS7_EENS5_INS_4pairIKS7_S9_EEEEEEEEaSB8ne180100ERKSK_, symObjAddr: 0x35B4, symBinAddr: 0x100003B9C, symSize: 0x34 }
  - { offset: 0x13F49, size: 0x8, addend: 0x0, symName: __ZNSt3__116__variant_detail17__copy_assignmentINS0_8__traitsIJDnbdNS_12basic_stringIcNS_11char_traitsIcEENS_9allocatorIcEEEENS_6vectorI9JsonValueNS6_ISA_EEEENS_3mapIS8_SA_NS_4lessIS8_EENS6_INS_4pairIKS8_SA_EEEEEEEEELNS0_6_TraitE1EEaSERKSN_, symObjAddr: 0x35E8, symBinAddr: 0x100003BD0, symSize: 0x34 }
  - { offset: 0x13F84, size: 0x8, addend: 0x0, symName: __ZNSt3__116__variant_detail12__assignmentINS0_8__traitsIJDnbdNS_12basic_stringIcNS_11char_traitsIcEENS_9allocatorIcEEEENS_6vectorI9JsonValueNS6_ISA_EEEENS_3mapIS8_SA_NS_4lessIS8_EENS6_INS_4pairIKS8_SA_EEEEEEEEEE16__generic_assignB8ne180100IRKNS0_17__copy_assignmentISL_LNS0_6_TraitE1EEEEEvOT_, symObjAddr: 0x361C, symBinAddr: 0x100003C04, symSize: 0x88 }
  - { offset: 0x140D9, size: 0x8, addend: 0x0, symName: __ZNKSt3__116__variant_detail6__baseILNS0_6_TraitE1EJDnbdNS_12basic_stringIcNS_11char_traitsIcEENS_9allocatorIcEEEENS_6vectorI9JsonValueNS6_ISA_EEEENS_3mapIS8_SA_NS_4lessIS8_EENS6_INS_4pairIKS8_SA_EEEEEEEE22valueless_by_exceptionB8ne180100Ev, symObjAddr: 0x36A4, symBinAddr: 0x100003C8C, symSize: 0x30 }
  - { offset: 0x140FF, size: 0x8, addend: 0x0, symName: __ZNSt3__116__variant_detail6__dtorINS0_8__traitsIJDnbdNS_12basic_stringIcNS_11char_traitsIcEENS_9allocatorIcEEEENS_6vectorI9JsonValueNS6_ISA_EEEENS_3mapIS8_SA_NS_4lessIS8_EENS6_INS_4pairIKS8_SA_EEEEEEEEELNS0_6_TraitE1EE9__destroyB8ne180100Ev, symObjAddr: 0x36D4, symBinAddr: 0x100003CBC, symSize: 0x54 }
  - { offset: 0x141ED, size: 0x8, addend: 0x0, symName: __ZNSt3__116__variant_detail12__visitation6__base14__visit_alt_atB8ne180100IZNS0_12__assignmentINS0_8__traitsIJDnbdNS_12basic_stringIcNS_11char_traitsIcEENS_9allocatorIcEEEENS_6vectorI9JsonValueNS9_ISD_EEEENS_3mapISB_SD_NS_4lessISB_EENS9_INS_4pairIKSB_SD_EEEEEEEEEE16__generic_assignB8ne180100IRKNS0_17__copy_assignmentISO_LNS0_6_TraitE1EEEEEvOT_EUlRSW_OT0_E_JRSP_SV_EEEDcmSX_DpOT0_, symObjAddr: 0x3728, symBinAddr: 0x100003D10, symSize: 0x84 }
  - { offset: 0x14266, size: 0x8, addend: 0x0, symName: __ZNKSt3__116__variant_detail6__baseILNS0_6_TraitE1EJDnbdNS_12basic_stringIcNS_11char_traitsIcEENS_9allocatorIcEEEENS_6vectorI9JsonValueNS6_ISA_EEEENS_3mapIS8_SA_NS_4lessIS8_EENS6_INS_4pairIKS8_SA_EEEEEEEE5indexB8ne180100Ev, symObjAddr: 0x37AC, symBinAddr: 0x100003D94, symSize: 0x4C }
  - { offset: 0x14292, size: 0x8, addend: 0x0, symName: __ZNSt3__116__variant_detail12__visitation6__base11__visit_altB8ne180100IZNS0_6__dtorINS0_8__traitsIJDnbdNS_12basic_stringIcNS_11char_traitsIcEENS_9allocatorIcEEEENS_6vectorI9JsonValueNS9_ISD_EEEENS_3mapISB_SD_NS_4lessISB_EENS9_INS_4pairIKSB_SD_EEEEEEEEELNS0_6_TraitE1EE9__destroyB8ne180100EvEUlRT_E_JRSQ_EEEDcOSR_DpOT0_, symObjAddr: 0x37F8, symBinAddr: 0x100003DE0, symSize: 0x74 }
  - { offset: 0x142EE, size: 0x8, addend: 0x0, symName: __ZNSt3__116__variant_detail12__visitation6__base12__dispatcherIJLm0EEE10__dispatchB8ne180100IOZNS0_6__dtorINS0_8__traitsIJDnbdNS_12basic_stringIcNS_11char_traitsIcEENS_9allocatorIcEEEENS_6vectorI9JsonValueNSB_ISF_EEEENS_3mapISD_SF_NS_4lessISD_EENSB_INS_4pairIKSD_SF_EEEEEEEEELNS0_6_TraitE1EE9__destroyB8ne180100EvEUlRT_E_JRNS0_6__baseILSR_1EJDnbdSD_SH_SP_EEEEEEDcST_DpT0_, symObjAddr: 0x386C, symBinAddr: 0x100003E54, symSize: 0x3C }
  - { offset: 0x14335, size: 0x8, addend: 0x0, symName: __ZNSt3__116__variant_detail12__visitation6__base12__dispatcherIJLm1EEE10__dispatchB8ne180100IOZNS0_6__dtorINS0_8__traitsIJDnbdNS_12basic_stringIcNS_11char_traitsIcEENS_9allocatorIcEEEENS_6vectorI9JsonValueNSB_ISF_EEEENS_3mapISD_SF_NS_4lessISD_EENSB_INS_4pairIKSD_SF_EEEEEEEEELNS0_6_TraitE1EE9__destroyB8ne180100EvEUlRT_E_JRNS0_6__baseILSR_1EJDnbdSD_SH_SP_EEEEEEDcST_DpT0_, symObjAddr: 0x38A8, symBinAddr: 0x100003E90, symSize: 0x3C }
  - { offset: 0x1437C, size: 0x8, addend: 0x0, symName: __ZNSt3__116__variant_detail12__visitation6__base12__dispatcherIJLm2EEE10__dispatchB8ne180100IOZNS0_6__dtorINS0_8__traitsIJDnbdNS_12basic_stringIcNS_11char_traitsIcEENS_9allocatorIcEEEENS_6vectorI9JsonValueNSB_ISF_EEEENS_3mapISD_SF_NS_4lessISD_EENSB_INS_4pairIKSD_SF_EEEEEEEEELNS0_6_TraitE1EE9__destroyB8ne180100EvEUlRT_E_JRNS0_6__baseILSR_1EJDnbdSD_SH_SP_EEEEEEDcST_DpT0_, symObjAddr: 0x38E4, symBinAddr: 0x100003ECC, symSize: 0x3C }
  - { offset: 0x143C3, size: 0x8, addend: 0x0, symName: __ZNSt3__116__variant_detail12__visitation6__base12__dispatcherIJLm3EEE10__dispatchB8ne180100IOZNS0_6__dtorINS0_8__traitsIJDnbdNS_12basic_stringIcNS_11char_traitsIcEENS_9allocatorIcEEEENS_6vectorI9JsonValueNSB_ISF_EEEENS_3mapISD_SF_NS_4lessISD_EENSB_INS_4pairIKSD_SF_EEEEEEEEELNS0_6_TraitE1EE9__destroyB8ne180100EvEUlRT_E_JRNS0_6__baseILSR_1EJDnbdSD_SH_SP_EEEEEEDcST_DpT0_, symObjAddr: 0x3920, symBinAddr: 0x100003F08, symSize: 0x3C }
  - { offset: 0x1440A, size: 0x8, addend: 0x0, symName: __ZNSt3__116__variant_detail12__visitation6__base12__dispatcherIJLm4EEE10__dispatchB8ne180100IOZNS0_6__dtorINS0_8__traitsIJDnbdNS_12basic_stringIcNS_11char_traitsIcEENS_9allocatorIcEEEENS_6vectorI9JsonValueNSB_ISF_EEEENS_3mapISD_SF_NS_4lessISD_EENSB_INS_4pairIKSD_SF_EEEEEEEEELNS0_6_TraitE1EE9__destroyB8ne180100EvEUlRT_E_JRNS0_6__baseILSR_1EJDnbdSD_SH_SP_EEEEEEDcST_DpT0_, symObjAddr: 0x395C, symBinAddr: 0x100003F44, symSize: 0x3C }
  - { offset: 0x14451, size: 0x8, addend: 0x0, symName: __ZNSt3__116__variant_detail12__visitation6__base12__dispatcherIJLm5EEE10__dispatchB8ne180100IOZNS0_6__dtorINS0_8__traitsIJDnbdNS_12basic_stringIcNS_11char_traitsIcEENS_9allocatorIcEEEENS_6vectorI9JsonValueNSB_ISF_EEEENS_3mapISD_SF_NS_4lessISD_EENSB_INS_4pairIKSD_SF_EEEEEEEEELNS0_6_TraitE1EE9__destroyB8ne180100EvEUlRT_E_JRNS0_6__baseILSR_1EJDnbdSD_SH_SP_EEEEEEDcST_DpT0_, symObjAddr: 0x3998, symBinAddr: 0x100003F80, symSize: 0x3C }
  - { offset: 0x144D5, size: 0x8, addend: 0x0, symName: __ZNSt3__116__variant_detail12__visitation6__base4__atB8ne180100IPFvOZNS0_6__dtorINS0_8__traitsIJDnbdNS_12basic_stringIcNS_11char_traitsIcEENS_9allocatorIcEEEENS_6vectorI9JsonValueNS9_ISD_EEEENS_3mapISB_SD_NS_4lessISB_EENS9_INS_4pairIKSB_SD_EEEEEEEEELNS0_6_TraitE1EE9__destroyB8ne180100EvEUlRT_E_RNS0_6__baseILSP_1EJDnbdSB_SF_SN_EEEELm6EJEEEODaRKNS_8__farrayISR_XT0_EEEmDpT1_, symObjAddr: 0x39D4, symBinAddr: 0x100003FBC, symSize: 0x30 }
  - { offset: 0x14520, size: 0x8, addend: 0x0, symName: __ZNRSt3__116__variant_detail6__baseILNS0_6_TraitE1EJDnbdNS_12basic_stringIcNS_11char_traitsIcEENS_9allocatorIcEEEENS_6vectorI9JsonValueNS6_ISA_EEEENS_3mapIS8_SA_NS_4lessIS8_EENS6_INS_4pairIKS8_SA_EEEEEEEE9__as_baseB8ne180100Ev, symObjAddr: 0x3A04, symBinAddr: 0x100003FEC, symSize: 0x14 }
  - { offset: 0x1454C, size: 0x8, addend: 0x0, symName: __ZNSt3__116__variant_detail8__access6__base9__get_altB8ne180100ILm0ERNS0_6__baseILNS0_6_TraitE1EJDnbdNS_12basic_stringIcNS_11char_traitsIcEENS_9allocatorIcEEEENS_6vectorI9JsonValueNS9_ISD_EEEENS_3mapISB_SD_NS_4lessISB_EENS9_INS_4pairIKSB_SD_EEEEEEEEEEEODaOT0_, symObjAddr: 0x3A44, symBinAddr: 0x10000402C, symSize: 0x24 }
  - { offset: 0x1458E, size: 0x8, addend: 0x0, symName: __ZZNSt3__116__variant_detail6__dtorINS0_8__traitsIJDnbdNS_12basic_stringIcNS_11char_traitsIcEENS_9allocatorIcEEEENS_6vectorI9JsonValueNS6_ISA_EEEENS_3mapIS8_SA_NS_4lessIS8_EENS6_INS_4pairIKS8_SA_EEEEEEEEELNS0_6_TraitE1EE9__destroyB8ne180100EvENKUlRT_E_clINS0_5__altILm0EDnEEEEDaSP_, symObjAddr: 0x3A68, symBinAddr: 0x100004050, symSize: 0x14 }
  - { offset: 0x145D0, size: 0x8, addend: 0x0, symName: __ZNSt3__116__variant_detail8__access7__union9__get_altB8ne180100IRNS0_7__unionILNS0_6_TraitE1ELm0EJDnbdNS_12basic_stringIcNS_11char_traitsIcEENS_9allocatorIcEEEENS_6vectorI9JsonValueNS9_ISD_EEEENS_3mapISB_SD_NS_4lessISB_EENS9_INS_4pairIKSB_SD_EEEEEEEEEEEODaOT_NS_16in_place_index_tILm0EEE, symObjAddr: 0x3A7C, symBinAddr: 0x100004064, symSize: 0x14 }
  - { offset: 0x1460F, size: 0x8, addend: 0x0, symName: __ZNSt3__116__variant_detail8__access6__base9__get_altB8ne180100ILm1ERNS0_6__baseILNS0_6_TraitE1EJDnbdNS_12basic_stringIcNS_11char_traitsIcEENS_9allocatorIcEEEENS_6vectorI9JsonValueNS9_ISD_EEEENS_3mapISB_SD_NS_4lessISB_EENS9_INS_4pairIKSB_SD_EEEEEEEEEEEODaOT0_, symObjAddr: 0x3ABC, symBinAddr: 0x1000040A4, symSize: 0x24 }
  - { offset: 0x14646, size: 0x8, addend: 0x0, symName: __ZZNSt3__116__variant_detail6__dtorINS0_8__traitsIJDnbdNS_12basic_stringIcNS_11char_traitsIcEENS_9allocatorIcEEEENS_6vectorI9JsonValueNS6_ISA_EEEENS_3mapIS8_SA_NS_4lessIS8_EENS6_INS_4pairIKS8_SA_EEEEEEEEELNS0_6_TraitE1EE9__destroyB8ne180100EvENKUlRT_E_clINS0_5__altILm1EbEEEEDaSP_, symObjAddr: 0x3AE0, symBinAddr: 0x1000040C8, symSize: 0x14 }
  - { offset: 0x14688, size: 0x8, addend: 0x0, symName: __ZNSt3__116__variant_detail8__access7__union9__get_altB8ne180100IRNS0_7__unionILNS0_6_TraitE1ELm0EJDnbdNS_12basic_stringIcNS_11char_traitsIcEENS_9allocatorIcEEEENS_6vectorI9JsonValueNS9_ISD_EEEENS_3mapISB_SD_NS_4lessISB_EENS9_INS_4pairIKSB_SD_EEEEEEEEELm1EEEODaOT_NS_16in_place_index_tIXT0_EEE, symObjAddr: 0x3AF4, symBinAddr: 0x1000040DC, symSize: 0x24 }
  - { offset: 0x146CB, size: 0x8, addend: 0x0, symName: __ZNSt3__116__variant_detail8__access7__union9__get_altB8ne180100IRNS0_7__unionILNS0_6_TraitE1ELm1EJbdNS_12basic_stringIcNS_11char_traitsIcEENS_9allocatorIcEEEENS_6vectorI9JsonValueNS9_ISD_EEEENS_3mapISB_SD_NS_4lessISB_EENS9_INS_4pairIKSB_SD_EEEEEEEEEEEODaOT_NS_16in_place_index_tILm0EEE, symObjAddr: 0x3B18, symBinAddr: 0x100004100, symSize: 0x14 }
  - { offset: 0x1470A, size: 0x8, addend: 0x0, symName: __ZNSt3__116__variant_detail8__access6__base9__get_altB8ne180100ILm2ERNS0_6__baseILNS0_6_TraitE1EJDnbdNS_12basic_stringIcNS_11char_traitsIcEENS_9allocatorIcEEEENS_6vectorI9JsonValueNS9_ISD_EEEENS_3mapISB_SD_NS_4lessISB_EENS9_INS_4pairIKSB_SD_EEEEEEEEEEEODaOT0_, symObjAddr: 0x3B58, symBinAddr: 0x100004140, symSize: 0x24 }
  - { offset: 0x14741, size: 0x8, addend: 0x0, symName: __ZZNSt3__116__variant_detail6__dtorINS0_8__traitsIJDnbdNS_12basic_stringIcNS_11char_traitsIcEENS_9allocatorIcEEEENS_6vectorI9JsonValueNS6_ISA_EEEENS_3mapIS8_SA_NS_4lessIS8_EENS6_INS_4pairIKS8_SA_EEEEEEEEELNS0_6_TraitE1EE9__destroyB8ne180100EvENKUlRT_E_clINS0_5__altILm2EdEEEEDaSP_, symObjAddr: 0x3B7C, symBinAddr: 0x100004164, symSize: 0x14 }
  - { offset: 0x14783, size: 0x8, addend: 0x0, symName: __ZNSt3__116__variant_detail8__access7__union9__get_altB8ne180100IRNS0_7__unionILNS0_6_TraitE1ELm0EJDnbdNS_12basic_stringIcNS_11char_traitsIcEENS_9allocatorIcEEEENS_6vectorI9JsonValueNS9_ISD_EEEENS_3mapISB_SD_NS_4lessISB_EENS9_INS_4pairIKSB_SD_EEEEEEEEELm2EEEODaOT_NS_16in_place_index_tIXT0_EEE, symObjAddr: 0x3B90, symBinAddr: 0x100004178, symSize: 0x24 }
  - { offset: 0x147C6, size: 0x8, addend: 0x0, symName: __ZNSt3__116__variant_detail8__access7__union9__get_altB8ne180100IRNS0_7__unionILNS0_6_TraitE1ELm1EJbdNS_12basic_stringIcNS_11char_traitsIcEENS_9allocatorIcEEEENS_6vectorI9JsonValueNS9_ISD_EEEENS_3mapISB_SD_NS_4lessISB_EENS9_INS_4pairIKSB_SD_EEEEEEEEELm1EEEODaOT_NS_16in_place_index_tIXT0_EEE, symObjAddr: 0x3BB4, symBinAddr: 0x10000419C, symSize: 0x24 }
  - { offset: 0x14809, size: 0x8, addend: 0x0, symName: __ZNSt3__116__variant_detail8__access7__union9__get_altB8ne180100IRNS0_7__unionILNS0_6_TraitE1ELm2EJdNS_12basic_stringIcNS_11char_traitsIcEENS_9allocatorIcEEEENS_6vectorI9JsonValueNS9_ISD_EEEENS_3mapISB_SD_NS_4lessISB_EENS9_INS_4pairIKSB_SD_EEEEEEEEEEEODaOT_NS_16in_place_index_tILm0EEE, symObjAddr: 0x3BD8, symBinAddr: 0x1000041C0, symSize: 0x14 }
  - { offset: 0x14848, size: 0x8, addend: 0x0, symName: __ZNSt3__116__variant_detail8__access6__base9__get_altB8ne180100ILm3ERNS0_6__baseILNS0_6_TraitE1EJDnbdNS_12basic_stringIcNS_11char_traitsIcEENS_9allocatorIcEEEENS_6vectorI9JsonValueNS9_ISD_EEEENS_3mapISB_SD_NS_4lessISB_EENS9_INS_4pairIKSB_SD_EEEEEEEEEEEODaOT0_, symObjAddr: 0x3C18, symBinAddr: 0x100004200, symSize: 0x24 }
  - { offset: 0x1487F, size: 0x8, addend: 0x0, symName: __ZZNSt3__116__variant_detail6__dtorINS0_8__traitsIJDnbdNS_12basic_stringIcNS_11char_traitsIcEENS_9allocatorIcEEEENS_6vectorI9JsonValueNS6_ISA_EEEENS_3mapIS8_SA_NS_4lessIS8_EENS6_INS_4pairIKS8_SA_EEEEEEEEELNS0_6_TraitE1EE9__destroyB8ne180100EvENKUlRT_E_clINS0_5__altILm3ES8_EEEEDaSP_, symObjAddr: 0x3C3C, symBinAddr: 0x100004224, symSize: 0x28 }
  - { offset: 0x148C7, size: 0x8, addend: 0x0, symName: __ZNSt3__116__variant_detail5__altILm3ENS_12basic_stringIcNS_11char_traitsIcEENS_9allocatorIcEEEEED1Ev, symObjAddr: 0x3C64, symBinAddr: 0x10000424C, symSize: 0x2C }
  - { offset: 0x148F4, size: 0x8, addend: 0x0, symName: __ZNSt3__116__variant_detail5__altILm3ENS_12basic_stringIcNS_11char_traitsIcEENS_9allocatorIcEEEEED2Ev, symObjAddr: 0x3C90, symBinAddr: 0x100004278, symSize: 0x2C }
  - { offset: 0x14921, size: 0x8, addend: 0x0, symName: __ZNSt3__116__variant_detail8__access7__union9__get_altB8ne180100IRNS0_7__unionILNS0_6_TraitE1ELm0EJDnbdNS_12basic_stringIcNS_11char_traitsIcEENS_9allocatorIcEEEENS_6vectorI9JsonValueNS9_ISD_EEEENS_3mapISB_SD_NS_4lessISB_EENS9_INS_4pairIKSB_SD_EEEEEEEEELm3EEEODaOT_NS_16in_place_index_tIXT0_EEE, symObjAddr: 0x3CBC, symBinAddr: 0x1000042A4, symSize: 0x24 }
  - { offset: 0x14964, size: 0x8, addend: 0x0, symName: __ZNSt3__116__variant_detail8__access7__union9__get_altB8ne180100IRNS0_7__unionILNS0_6_TraitE1ELm1EJbdNS_12basic_stringIcNS_11char_traitsIcEENS_9allocatorIcEEEENS_6vectorI9JsonValueNS9_ISD_EEEENS_3mapISB_SD_NS_4lessISB_EENS9_INS_4pairIKSB_SD_EEEEEEEEELm2EEEODaOT_NS_16in_place_index_tIXT0_EEE, symObjAddr: 0x3CE0, symBinAddr: 0x1000042C8, symSize: 0x24 }
  - { offset: 0x149A7, size: 0x8, addend: 0x0, symName: __ZNSt3__116__variant_detail8__access7__union9__get_altB8ne180100IRNS0_7__unionILNS0_6_TraitE1ELm2EJdNS_12basic_stringIcNS_11char_traitsIcEENS_9allocatorIcEEEENS_6vectorI9JsonValueNS9_ISD_EEEENS_3mapISB_SD_NS_4lessISB_EENS9_INS_4pairIKSB_SD_EEEEEEEEELm1EEEODaOT_NS_16in_place_index_tIXT0_EEE, symObjAddr: 0x3D04, symBinAddr: 0x1000042EC, symSize: 0x24 }
  - { offset: 0x149EA, size: 0x8, addend: 0x0, symName: __ZNSt3__116__variant_detail8__access7__union9__get_altB8ne180100IRNS0_7__unionILNS0_6_TraitE1ELm3EJNS_12basic_stringIcNS_11char_traitsIcEENS_9allocatorIcEEEENS_6vectorI9JsonValueNS9_ISD_EEEENS_3mapISB_SD_NS_4lessISB_EENS9_INS_4pairIKSB_SD_EEEEEEEEEEEODaOT_NS_16in_place_index_tILm0EEE, symObjAddr: 0x3D28, symBinAddr: 0x100004310, symSize: 0x14 }
  - { offset: 0x14A29, size: 0x8, addend: 0x0, symName: __ZNSt3__116__variant_detail8__access6__base9__get_altB8ne180100ILm4ERNS0_6__baseILNS0_6_TraitE1EJDnbdNS_12basic_stringIcNS_11char_traitsIcEENS_9allocatorIcEEEENS_6vectorI9JsonValueNS9_ISD_EEEENS_3mapISB_SD_NS_4lessISB_EENS9_INS_4pairIKSB_SD_EEEEEEEEEEEODaOT0_, symObjAddr: 0x3D68, symBinAddr: 0x100004350, symSize: 0x24 }
  - { offset: 0x14A60, size: 0x8, addend: 0x0, symName: __ZZNSt3__116__variant_detail6__dtorINS0_8__traitsIJDnbdNS_12basic_stringIcNS_11char_traitsIcEENS_9allocatorIcEEEENS_6vectorI9JsonValueNS6_ISA_EEEENS_3mapIS8_SA_NS_4lessIS8_EENS6_INS_4pairIKS8_SA_EEEEEEEEELNS0_6_TraitE1EE9__destroyB8ne180100EvENKUlRT_E_clINS0_5__altILm4ESC_EEEEDaSP_, symObjAddr: 0x3D8C, symBinAddr: 0x100004374, symSize: 0x28 }
  - { offset: 0x14AA8, size: 0x8, addend: 0x0, symName: __ZNSt3__116__variant_detail5__altILm4ENS_6vectorI9JsonValueNS_9allocatorIS3_EEEEED1Ev, symObjAddr: 0x3DB4, symBinAddr: 0x10000439C, symSize: 0x2C }
  - { offset: 0x14AD5, size: 0x8, addend: 0x0, symName: __ZNSt3__116__variant_detail5__altILm4ENS_6vectorI9JsonValueNS_9allocatorIS3_EEEEED2Ev, symObjAddr: 0x3DE0, symBinAddr: 0x1000043C8, symSize: 0x2C }
  - { offset: 0x14B02, size: 0x8, addend: 0x0, symName: __ZNSt3__16vectorI9JsonValueNS_9allocatorIS1_EEED1B8ne180100Ev, symObjAddr: 0x3E0C, symBinAddr: 0x1000043F4, symSize: 0x2C }
  - { offset: 0x14B2C, size: 0x8, addend: 0x0, symName: __ZNSt3__16vectorI9JsonValueNS_9allocatorIS1_EEED2B8ne180100Ev, symObjAddr: 0x3E38, symBinAddr: 0x100004420, symSize: 0x44 }
  - { offset: 0x14B56, size: 0x8, addend: 0x0, symName: __ZNSt3__16vectorI9JsonValueNS_9allocatorIS1_EEE16__destroy_vectorC1B8ne180100ERS4_, symObjAddr: 0x3E7C, symBinAddr: 0x100004464, symSize: 0x34 }
  - { offset: 0x14B8F, size: 0x8, addend: 0x0, symName: __ZNSt3__16vectorI9JsonValueNS_9allocatorIS1_EEE16__destroy_vectorclB8ne180100Ev, symObjAddr: 0x3EB0, symBinAddr: 0x100004498, symSize: 0x90 }
  - { offset: 0x14BB5, size: 0x8, addend: 0x0, symName: __ZNSt3__16vectorI9JsonValueNS_9allocatorIS1_EEE16__destroy_vectorC2B8ne180100ERS4_, symObjAddr: 0x3F40, symBinAddr: 0x100004528, symSize: 0x20 }
  - { offset: 0x14BEE, size: 0x8, addend: 0x0, symName: __ZNSt3__16vectorI9JsonValueNS_9allocatorIS1_EEE7__clearB8ne180100Ev, symObjAddr: 0x3F60, symBinAddr: 0x100004548, symSize: 0x28 }
  - { offset: 0x14C14, size: 0x8, addend: 0x0, symName: __ZNKSt3__16vectorI9JsonValueNS_9allocatorIS1_EEE17__annotate_deleteB8ne180100Ev, symObjAddr: 0x3F88, symBinAddr: 0x100004570, symSize: 0x10 }
  - { offset: 0x14C3A, size: 0x8, addend: 0x0, symName: __ZNSt3__116allocator_traitsINS_9allocatorI9JsonValueEEE10deallocateB8ne180100ERS3_PS2_m, symObjAddr: 0x3F98, symBinAddr: 0x100004580, symSize: 0x34 }
  - { offset: 0x14C7C, size: 0x8, addend: 0x0, symName: __ZNSt3__16vectorI9JsonValueNS_9allocatorIS1_EEE7__allocB8ne180100Ev, symObjAddr: 0x3FCC, symBinAddr: 0x1000045B4, symSize: 0x28 }
  - { offset: 0x14CA2, size: 0x8, addend: 0x0, symName: __ZNKSt3__16vectorI9JsonValueNS_9allocatorIS1_EEE8capacityB8ne180100Ev, symObjAddr: 0x3FF4, symBinAddr: 0x1000045DC, symSize: 0x40 }
  - { offset: 0x14CC8, size: 0x8, addend: 0x0, symName: __ZNSt3__16vectorI9JsonValueNS_9allocatorIS1_EEE22__base_destruct_at_endB8ne180100EPS1_, symObjAddr: 0x4034, symBinAddr: 0x10000461C, symSize: 0x8C }
  - { offset: 0x14D0C, size: 0x8, addend: 0x0, symName: __ZNSt3__116allocator_traitsINS_9allocatorI9JsonValueEEE7destroyB8ne180100IS2_vEEvRS3_PT_, symObjAddr: 0x40C0, symBinAddr: 0x1000046A8, symSize: 0x2C }
  - { offset: 0x14D49, size: 0x8, addend: 0x0, symName: __ZNSt3__19allocatorI9JsonValueE7destroyB8ne180100EPS1_, symObjAddr: 0x4100, symBinAddr: 0x1000046E8, symSize: 0x28 }
  - { offset: 0x14D7D, size: 0x8, addend: 0x0, symName: __ZNSt3__19allocatorI9JsonValueE10deallocateB8ne180100EPS1_m, symObjAddr: 0x4128, symBinAddr: 0x100004710, symSize: 0x40 }
  - { offset: 0x14DBF, size: 0x8, addend: 0x0, symName: __ZNSt3__117__compressed_pairIP9JsonValueNS_9allocatorIS1_EEE6secondB8ne180100Ev, symObjAddr: 0x4168, symBinAddr: 0x100004750, symSize: 0x24 }
  - { offset: 0x14DE5, size: 0x8, addend: 0x0, symName: __ZNSt3__122__compressed_pair_elemINS_9allocatorI9JsonValueEELi1ELb1EE5__getB8ne180100Ev, symObjAddr: 0x418C, symBinAddr: 0x100004774, symSize: 0x14 }
  - { offset: 0x14E0B, size: 0x8, addend: 0x0, symName: __ZNKSt3__16vectorI9JsonValueNS_9allocatorIS1_EEE9__end_capB8ne180100Ev, symObjAddr: 0x41A0, symBinAddr: 0x100004788, symSize: 0x28 }
  - { offset: 0x14E31, size: 0x8, addend: 0x0, symName: __ZNKSt3__117__compressed_pairIP9JsonValueNS_9allocatorIS1_EEE5firstB8ne180100Ev, symObjAddr: 0x41C8, symBinAddr: 0x1000047B0, symSize: 0x24 }
  - { offset: 0x14E57, size: 0x8, addend: 0x0, symName: __ZNKSt3__122__compressed_pair_elemIP9JsonValueLi0ELb0EE5__getB8ne180100Ev, symObjAddr: 0x41EC, symBinAddr: 0x1000047D4, symSize: 0x14 }
  - { offset: 0x14E7D, size: 0x8, addend: 0x0, symName: __ZNSt3__116__variant_detail8__access7__union9__get_altB8ne180100IRNS0_7__unionILNS0_6_TraitE1ELm0EJDnbdNS_12basic_stringIcNS_11char_traitsIcEENS_9allocatorIcEEEENS_6vectorI9JsonValueNS9_ISD_EEEENS_3mapISB_SD_NS_4lessISB_EENS9_INS_4pairIKSB_SD_EEEEEEEEELm4EEEODaOT_NS_16in_place_index_tIXT0_EEE, symObjAddr: 0x4200, symBinAddr: 0x1000047E8, symSize: 0x24 }
  - { offset: 0x14EC0, size: 0x8, addend: 0x0, symName: __ZNSt3__116__variant_detail8__access7__union9__get_altB8ne180100IRNS0_7__unionILNS0_6_TraitE1ELm1EJbdNS_12basic_stringIcNS_11char_traitsIcEENS_9allocatorIcEEEENS_6vectorI9JsonValueNS9_ISD_EEEENS_3mapISB_SD_NS_4lessISB_EENS9_INS_4pairIKSB_SD_EEEEEEEEELm3EEEODaOT_NS_16in_place_index_tIXT0_EEE, symObjAddr: 0x4224, symBinAddr: 0x10000480C, symSize: 0x24 }
  - { offset: 0x14F03, size: 0x8, addend: 0x0, symName: __ZNSt3__116__variant_detail8__access7__union9__get_altB8ne180100IRNS0_7__unionILNS0_6_TraitE1ELm2EJdNS_12basic_stringIcNS_11char_traitsIcEENS_9allocatorIcEEEENS_6vectorI9JsonValueNS9_ISD_EEEENS_3mapISB_SD_NS_4lessISB_EENS9_INS_4pairIKSB_SD_EEEEEEEEELm2EEEODaOT_NS_16in_place_index_tIXT0_EEE, symObjAddr: 0x4248, symBinAddr: 0x100004830, symSize: 0x24 }
  - { offset: 0x14F46, size: 0x8, addend: 0x0, symName: __ZNSt3__116__variant_detail8__access7__union9__get_altB8ne180100IRNS0_7__unionILNS0_6_TraitE1ELm3EJNS_12basic_stringIcNS_11char_traitsIcEENS_9allocatorIcEEEENS_6vectorI9JsonValueNS9_ISD_EEEENS_3mapISB_SD_NS_4lessISB_EENS9_INS_4pairIKSB_SD_EEEEEEEEELm1EEEODaOT_NS_16in_place_index_tIXT0_EEE, symObjAddr: 0x426C, symBinAddr: 0x100004854, symSize: 0x24 }
  - { offset: 0x14F89, size: 0x8, addend: 0x0, symName: __ZNSt3__116__variant_detail8__access7__union9__get_altB8ne180100IRNS0_7__unionILNS0_6_TraitE1ELm4EJNS_6vectorI9JsonValueNS_9allocatorIS7_EEEENS_3mapINS_12basic_stringIcNS_11char_traitsIcEENS8_IcEEEES7_NS_4lessISG_EENS8_INS_4pairIKSG_S7_EEEEEEEEEEEODaOT_NS_16in_place_index_tILm0EEE, symObjAddr: 0x4290, symBinAddr: 0x100004878, symSize: 0x14 }
  - { offset: 0x14FC8, size: 0x8, addend: 0x0, symName: __ZNSt3__116__variant_detail8__access6__base9__get_altB8ne180100ILm5ERNS0_6__baseILNS0_6_TraitE1EJDnbdNS_12basic_stringIcNS_11char_traitsIcEENS_9allocatorIcEEEENS_6vectorI9JsonValueNS9_ISD_EEEENS_3mapISB_SD_NS_4lessISB_EENS9_INS_4pairIKSB_SD_EEEEEEEEEEEODaOT0_, symObjAddr: 0x42D0, symBinAddr: 0x1000048B8, symSize: 0x24 }
  - { offset: 0x14FFF, size: 0x8, addend: 0x0, symName: __ZZNSt3__116__variant_detail6__dtorINS0_8__traitsIJDnbdNS_12basic_stringIcNS_11char_traitsIcEENS_9allocatorIcEEEENS_6vectorI9JsonValueNS6_ISA_EEEENS_3mapIS8_SA_NS_4lessIS8_EENS6_INS_4pairIKS8_SA_EEEEEEEEELNS0_6_TraitE1EE9__destroyB8ne180100EvENKUlRT_E_clINS0_5__altILm5ESK_EEEEDaSP_, symObjAddr: 0x42F4, symBinAddr: 0x1000048DC, symSize: 0x28 }
  - { offset: 0x15047, size: 0x8, addend: 0x0, symName: __ZNSt3__116__variant_detail5__altILm5ENS_3mapINS_12basic_stringIcNS_11char_traitsIcEENS_9allocatorIcEEEE9JsonValueNS_4lessIS8_EENS6_INS_4pairIKS8_S9_EEEEEEED1Ev, symObjAddr: 0x431C, symBinAddr: 0x100004904, symSize: 0x2C }
  - { offset: 0x15074, size: 0x8, addend: 0x0, symName: __ZNSt3__116__variant_detail5__altILm5ENS_3mapINS_12basic_stringIcNS_11char_traitsIcEENS_9allocatorIcEEEE9JsonValueNS_4lessIS8_EENS6_INS_4pairIKS8_S9_EEEEEEED2Ev, symObjAddr: 0x4348, symBinAddr: 0x100004930, symSize: 0x2C }
  - { offset: 0x150A1, size: 0x8, addend: 0x0, symName: __ZNSt3__116__variant_detail8__access7__union9__get_altB8ne180100IRNS0_7__unionILNS0_6_TraitE1ELm0EJDnbdNS_12basic_stringIcNS_11char_traitsIcEENS_9allocatorIcEEEENS_6vectorI9JsonValueNS9_ISD_EEEENS_3mapISB_SD_NS_4lessISB_EENS9_INS_4pairIKSB_SD_EEEEEEEEELm5EEEODaOT_NS_16in_place_index_tIXT0_EEE, symObjAddr: 0x4374, symBinAddr: 0x10000495C, symSize: 0x24 }
  - { offset: 0x150E4, size: 0x8, addend: 0x0, symName: __ZNSt3__116__variant_detail8__access7__union9__get_altB8ne180100IRNS0_7__unionILNS0_6_TraitE1ELm1EJbdNS_12basic_stringIcNS_11char_traitsIcEENS_9allocatorIcEEEENS_6vectorI9JsonValueNS9_ISD_EEEENS_3mapISB_SD_NS_4lessISB_EENS9_INS_4pairIKSB_SD_EEEEEEEEELm4EEEODaOT_NS_16in_place_index_tIXT0_EEE, symObjAddr: 0x4398, symBinAddr: 0x100004980, symSize: 0x24 }
  - { offset: 0x15127, size: 0x8, addend: 0x0, symName: __ZNSt3__116__variant_detail8__access7__union9__get_altB8ne180100IRNS0_7__unionILNS0_6_TraitE1ELm2EJdNS_12basic_stringIcNS_11char_traitsIcEENS_9allocatorIcEEEENS_6vectorI9JsonValueNS9_ISD_EEEENS_3mapISB_SD_NS_4lessISB_EENS9_INS_4pairIKSB_SD_EEEEEEEEELm3EEEODaOT_NS_16in_place_index_tIXT0_EEE, symObjAddr: 0x43BC, symBinAddr: 0x1000049A4, symSize: 0x24 }
  - { offset: 0x1516A, size: 0x8, addend: 0x0, symName: __ZNSt3__116__variant_detail8__access7__union9__get_altB8ne180100IRNS0_7__unionILNS0_6_TraitE1ELm3EJNS_12basic_stringIcNS_11char_traitsIcEENS_9allocatorIcEEEENS_6vectorI9JsonValueNS9_ISD_EEEENS_3mapISB_SD_NS_4lessISB_EENS9_INS_4pairIKSB_SD_EEEEEEEEELm2EEEODaOT_NS_16in_place_index_tIXT0_EEE, symObjAddr: 0x43E0, symBinAddr: 0x1000049C8, symSize: 0x24 }
  - { offset: 0x151AD, size: 0x8, addend: 0x0, symName: __ZNSt3__116__variant_detail8__access7__union9__get_altB8ne180100IRNS0_7__unionILNS0_6_TraitE1ELm4EJNS_6vectorI9JsonValueNS_9allocatorIS7_EEEENS_3mapINS_12basic_stringIcNS_11char_traitsIcEENS8_IcEEEES7_NS_4lessISG_EENS8_INS_4pairIKSG_S7_EEEEEEEEELm1EEEODaOT_NS_16in_place_index_tIXT0_EEE, symObjAddr: 0x4404, symBinAddr: 0x1000049EC, symSize: 0x24 }
  - { offset: 0x151F0, size: 0x8, addend: 0x0, symName: __ZNSt3__116__variant_detail8__access7__union9__get_altB8ne180100IRNS0_7__unionILNS0_6_TraitE1ELm5EJNS_3mapINS_12basic_stringIcNS_11char_traitsIcEENS_9allocatorIcEEEE9JsonValueNS_4lessISC_EENSA_INS_4pairIKSC_SD_EEEEEEEEEEEODaOT_NS_16in_place_index_tILm0EEE, symObjAddr: 0x4428, symBinAddr: 0x100004A10, symSize: 0x14 }
  - { offset: 0x15229, size: 0x8, addend: 0x0, symName: __ZNSt3__116__variant_detail12__visitation6__base4__atB8ne180100IPFvOZNS0_6__dtorINS0_8__traitsIJDnbdNS_12basic_stringIcNS_11char_traitsIcEENS_9allocatorIcEEEENS_6vectorI9JsonValueNS9_ISD_EEEENS_3mapISB_SD_NS_4lessISB_EENS9_INS_4pairIKSB_SD_EEEEEEEEELNS0_6_TraitE1EE9__destroyB8ne180100EvEUlRT_E_RNS0_6__baseILSP_1EJDnbdSB_SF_SN_EEEEEERKSR_S11_, symObjAddr: 0x443C, symBinAddr: 0x100004A24, symSize: 0x14 }
  - { offset: 0x15256, size: 0x8, addend: 0x0, symName: __ZNKSt3__18__farrayIPFvOZNS_16__variant_detail6__dtorINS1_8__traitsIJDnbdNS_12basic_stringIcNS_11char_traitsIcEENS_9allocatorIcEEEENS_6vectorI9JsonValueNS7_ISB_EEEENS_3mapIS9_SB_NS_4lessIS9_EENS7_INS_4pairIKS9_SB_EEEEEEEEELNS1_6_TraitE1EE9__destroyB8ne180100EvEUlRT_E_RNS1_6__baseILSN_1EJDnbdS9_SD_SL_EEEELm6EEixB8ne180100Em, symObjAddr: 0x4450, symBinAddr: 0x100004A38, symSize: 0x20 }
  - { offset: 0x15291, size: 0x8, addend: 0x0, symName: __ZNSt3__116__variant_detail12__visitation6__base12__dispatcherIJLm0ELm0EEE10__dispatchB8ne180100IOZNS0_12__assignmentINS0_8__traitsIJDnbdNS_12basic_stringIcNS_11char_traitsIcEENS_9allocatorIcEEEENS_6vectorI9JsonValueNSB_ISF_EEEENS_3mapISD_SF_NS_4lessISD_EENSB_INS_4pairIKSD_SF_EEEEEEEEEE16__generic_assignB8ne180100IRKNS0_17__copy_assignmentISQ_LNS0_6_TraitE1EEEEEvOT_EUlRSY_OT0_E_JRNS0_6__baseILSU_1EJDnbdSD_SH_SP_EEERKS16_EEEDcSY_DpT0_, symObjAddr: 0x4470, symBinAddr: 0x100004A58, symSize: 0x50 }
  - { offset: 0x152EC, size: 0x8, addend: 0x0, symName: __ZNSt3__116__variant_detail12__visitation6__base12__dispatcherIJLm1ELm1EEE10__dispatchB8ne180100IOZNS0_12__assignmentINS0_8__traitsIJDnbdNS_12basic_stringIcNS_11char_traitsIcEENS_9allocatorIcEEEENS_6vectorI9JsonValueNSB_ISF_EEEENS_3mapISD_SF_NS_4lessISD_EENSB_INS_4pairIKSD_SF_EEEEEEEEEE16__generic_assignB8ne180100IRKNS0_17__copy_assignmentISQ_LNS0_6_TraitE1EEEEEvOT_EUlRSY_OT0_E_JRNS0_6__baseILSU_1EJDnbdSD_SH_SP_EEERKS16_EEEDcSY_DpT0_, symObjAddr: 0x44C0, symBinAddr: 0x100004AA8, symSize: 0x50 }
  - { offset: 0x15347, size: 0x8, addend: 0x0, symName: __ZNSt3__116__variant_detail12__visitation6__base12__dispatcherIJLm2ELm2EEE10__dispatchB8ne180100IOZNS0_12__assignmentINS0_8__traitsIJDnbdNS_12basic_stringIcNS_11char_traitsIcEENS_9allocatorIcEEEENS_6vectorI9JsonValueNSB_ISF_EEEENS_3mapISD_SF_NS_4lessISD_EENSB_INS_4pairIKSD_SF_EEEEEEEEEE16__generic_assignB8ne180100IRKNS0_17__copy_assignmentISQ_LNS0_6_TraitE1EEEEEvOT_EUlRSY_OT0_E_JRNS0_6__baseILSU_1EJDnbdSD_SH_SP_EEERKS16_EEEDcSY_DpT0_, symObjAddr: 0x4510, symBinAddr: 0x100004AF8, symSize: 0x50 }
  - { offset: 0x153A2, size: 0x8, addend: 0x0, symName: __ZNSt3__116__variant_detail12__visitation6__base12__dispatcherIJLm3ELm3EEE10__dispatchB8ne180100IOZNS0_12__assignmentINS0_8__traitsIJDnbdNS_12basic_stringIcNS_11char_traitsIcEENS_9allocatorIcEEEENS_6vectorI9JsonValueNSB_ISF_EEEENS_3mapISD_SF_NS_4lessISD_EENSB_INS_4pairIKSD_SF_EEEEEEEEEE16__generic_assignB8ne180100IRKNS0_17__copy_assignmentISQ_LNS0_6_TraitE1EEEEEvOT_EUlRSY_OT0_E_JRNS0_6__baseILSU_1EJDnbdSD_SH_SP_EEERKS16_EEEDcSY_DpT0_, symObjAddr: 0x4560, symBinAddr: 0x100004B48, symSize: 0x50 }
  - { offset: 0x153FD, size: 0x8, addend: 0x0, symName: __ZNSt3__116__variant_detail12__visitation6__base12__dispatcherIJLm4ELm4EEE10__dispatchB8ne180100IOZNS0_12__assignmentINS0_8__traitsIJDnbdNS_12basic_stringIcNS_11char_traitsIcEENS_9allocatorIcEEEENS_6vectorI9JsonValueNSB_ISF_EEEENS_3mapISD_SF_NS_4lessISD_EENSB_INS_4pairIKSD_SF_EEEEEEEEEE16__generic_assignB8ne180100IRKNS0_17__copy_assignmentISQ_LNS0_6_TraitE1EEEEEvOT_EUlRSY_OT0_E_JRNS0_6__baseILSU_1EJDnbdSD_SH_SP_EEERKS16_EEEDcSY_DpT0_, symObjAddr: 0x45B0, symBinAddr: 0x100004B98, symSize: 0x50 }
  - { offset: 0x15458, size: 0x8, addend: 0x0, symName: __ZNSt3__116__variant_detail12__visitation6__base12__dispatcherIJLm5ELm5EEE10__dispatchB8ne180100IOZNS0_12__assignmentINS0_8__traitsIJDnbdNS_12basic_stringIcNS_11char_traitsIcEENS_9allocatorIcEEEENS_6vectorI9JsonValueNSB_ISF_EEEENS_3mapISD_SF_NS_4lessISD_EENSB_INS_4pairIKSD_SF_EEEEEEEEEE16__generic_assignB8ne180100IRKNS0_17__copy_assignmentISQ_LNS0_6_TraitE1EEEEEvOT_EUlRSY_OT0_E_JRNS0_6__baseILSU_1EJDnbdSD_SH_SP_EEERKS16_EEEDcSY_DpT0_, symObjAddr: 0x4600, symBinAddr: 0x100004BE8, symSize: 0x50 }
  - { offset: 0x154EF, size: 0x8, addend: 0x0, symName: __ZNKSt3__18__farrayIPFvOZNS_16__variant_detail12__assignmentINS1_8__traitsIJDnbdNS_12basic_stringIcNS_11char_traitsIcEENS_9allocatorIcEEEENS_6vectorI9JsonValueNS7_ISB_EEEENS_3mapIS9_SB_NS_4lessIS9_EENS7_INS_4pairIKS9_SB_EEEEEEEEEE16__generic_assignB8ne180100IRKNS1_17__copy_assignmentISM_LNS1_6_TraitE1EEEEEvOT_EUlRSU_OT0_E_RNS1_6__baseILSQ_1EJDnbdS9_SD_SL_EEERKS12_ELm6EEixB8ne180100Em, symObjAddr: 0x4650, symBinAddr: 0x100004C38, symSize: 0x20 }
  - { offset: 0x15524, size: 0x8, addend: 0x0, symName: __ZNKRSt3__116__variant_detail6__baseILNS0_6_TraitE1EJDnbdNS_12basic_stringIcNS_11char_traitsIcEENS_9allocatorIcEEEENS_6vectorI9JsonValueNS6_ISA_EEEENS_3mapIS8_SA_NS_4lessIS8_EENS6_INS_4pairIKS8_SA_EEEEEEEE9__as_baseB8ne180100Ev, symObjAddr: 0x4670, symBinAddr: 0x100004C58, symSize: 0x14 }
  - { offset: 0x15555, size: 0x8, addend: 0x0, symName: __ZNSt3__116__variant_detail8__access6__base9__get_altB8ne180100ILm0ERKNS0_6__baseILNS0_6_TraitE1EJDnbdNS_12basic_stringIcNS_11char_traitsIcEENS_9allocatorIcEEEENS_6vectorI9JsonValueNS9_ISD_EEEENS_3mapISB_SD_NS_4lessISB_EENS9_INS_4pairIKSB_SD_EEEEEEEEEEEODaOT0_, symObjAddr: 0x46B8, symBinAddr: 0x100004CA0, symSize: 0x24 }
  - { offset: 0x15597, size: 0x8, addend: 0x0, symName: __ZZNSt3__116__variant_detail12__assignmentINS0_8__traitsIJDnbdNS_12basic_stringIcNS_11char_traitsIcEENS_9allocatorIcEEEENS_6vectorI9JsonValueNS6_ISA_EEEENS_3mapIS8_SA_NS_4lessIS8_EENS6_INS_4pairIKS8_SA_EEEEEEEEEE16__generic_assignB8ne180100IRKNS0_17__copy_assignmentISL_LNS0_6_TraitE1EEEEEvOT_ENKUlRST_OT0_E_clINS0_5__altILm0EDnEERKS11_EEDaSV_SX_, symObjAddr: 0x46DC, symBinAddr: 0x100004CC4, symSize: 0x38 }
  - { offset: 0x155FC, size: 0x8, addend: 0x0, symName: __ZNSt3__116__variant_detail12__assignmentINS0_8__traitsIJDnbdNS_12basic_stringIcNS_11char_traitsIcEENS_9allocatorIcEEEENS_6vectorI9JsonValueNS6_ISA_EEEENS_3mapIS8_SA_NS_4lessIS8_EENS6_INS_4pairIKS8_SA_EEEEEEEEEE12__assign_altB8ne180100ILm0EDnRKDnEEvRNS0_5__altIXT_ET0_EEOT1_, symObjAddr: 0x4714, symBinAddr: 0x100004CFC, symSize: 0x68 }
  - { offset: 0x156CC, size: 0x8, addend: 0x0, symName: __ZZNSt3__116__variant_detail12__assignmentINS0_8__traitsIJDnbdNS_12basic_stringIcNS_11char_traitsIcEENS_9allocatorIcEEEENS_6vectorI9JsonValueNS6_ISA_EEEENS_3mapIS8_SA_NS_4lessIS8_EENS6_INS_4pairIKS8_SA_EEEEEEEEEE12__assign_altB8ne180100ILm0EDnRKDnEEvRNS0_5__altIXT_ET0_EEOT1_ENKUt_clB8ne180100ENS_17integral_constantIbLb1EEE, symObjAddr: 0x477C, symBinAddr: 0x100004D64, symSize: 0x2C }
  - { offset: 0x15708, size: 0x8, addend: 0x0, symName: __ZNSt3__116__variant_detail12__assignmentINS0_8__traitsIJDnbdNS_12basic_stringIcNS_11char_traitsIcEENS_9allocatorIcEEEENS_6vectorI9JsonValueNS6_ISA_EEEENS_3mapIS8_SA_NS_4lessIS8_EENS6_INS_4pairIKS8_SA_EEEEEEEEEE9__emplaceB8ne180100ILm0EJRKDnEEERDaDpOT0_, symObjAddr: 0x47A8, symBinAddr: 0x100004D90, symSize: 0x4C }
  - { offset: 0x15761, size: 0x8, addend: 0x0, symName: __ZNSt3__116__variant_detail6__ctorINS0_8__traitsIJDnbdNS_12basic_stringIcNS_11char_traitsIcEENS_9allocatorIcEEEENS_6vectorI9JsonValueNS6_ISA_EEEENS_3mapIS8_SA_NS_4lessIS8_EENS6_INS_4pairIKS8_SA_EEEEEEEEEE15__construct_altB8ne180100ILm0EDnJRKDnEEERT0_RNS0_5__altIXT_ESQ_EEDpOT1_, symObjAddr: 0x47F4, symBinAddr: 0x100004DDC, symSize: 0x30 }
  - { offset: 0x157B2, size: 0x8, addend: 0x0, symName: __ZNSt3__116__variant_detail8__access6__base9__get_altB8ne180100ILm0ERNS0_12__assignmentINS0_8__traitsIJDnbdNS_12basic_stringIcNS_11char_traitsIcEENS_9allocatorIcEEEENS_6vectorI9JsonValueNS9_ISD_EEEENS_3mapISB_SD_NS_4lessISB_EENS9_INS_4pairIKSB_SD_EEEEEEEEEEEEEODaOT0_, symObjAddr: 0x4824, symBinAddr: 0x100004E0C, symSize: 0x24 }
  - { offset: 0x157EF, size: 0x8, addend: 0x0, symName: __ZNSt3__116__variant_detail5__altILm0EDnEC1B8ne180100IJRKDnEEENS_10in_place_tEDpOT_, symObjAddr: 0x4848, symBinAddr: 0x100004E30, symSize: 0x34 }
  - { offset: 0x1583F, size: 0x8, addend: 0x0, symName: __ZNSt3__116__variant_detail5__altILm0EDnEC2B8ne180100IJRKDnEEENS_10in_place_tEDpOT_, symObjAddr: 0x487C, symBinAddr: 0x100004E64, symSize: 0x1C }
  - { offset: 0x1588F, size: 0x8, addend: 0x0, symName: __ZNSt3__116__variant_detail8__access7__union9__get_altB8ne180100IRKNS0_7__unionILNS0_6_TraitE1ELm0EJDnbdNS_12basic_stringIcNS_11char_traitsIcEENS_9allocatorIcEEEENS_6vectorI9JsonValueNS9_ISD_EEEENS_3mapISB_SD_NS_4lessISB_EENS9_INS_4pairIKSB_SD_EEEEEEEEEEEODaOT_NS_16in_place_index_tILm0EEE, symObjAddr: 0x4898, symBinAddr: 0x100004E80, symSize: 0x14 }
  - { offset: 0x158D3, size: 0x8, addend: 0x0, symName: __ZNSt3__116__variant_detail8__access6__base9__get_altB8ne180100ILm1ERKNS0_6__baseILNS0_6_TraitE1EJDnbdNS_12basic_stringIcNS_11char_traitsIcEENS_9allocatorIcEEEENS_6vectorI9JsonValueNS9_ISD_EEEENS_3mapISB_SD_NS_4lessISB_EENS9_INS_4pairIKSB_SD_EEEEEEEEEEEODaOT0_, symObjAddr: 0x48E0, symBinAddr: 0x100004EC8, symSize: 0x24 }
  - { offset: 0x1590A, size: 0x8, addend: 0x0, symName: __ZZNSt3__116__variant_detail12__assignmentINS0_8__traitsIJDnbdNS_12basic_stringIcNS_11char_traitsIcEENS_9allocatorIcEEEENS_6vectorI9JsonValueNS6_ISA_EEEENS_3mapIS8_SA_NS_4lessIS8_EENS6_INS_4pairIKS8_SA_EEEEEEEEEE16__generic_assignB8ne180100IRKNS0_17__copy_assignmentISL_LNS0_6_TraitE1EEEEEvOT_ENKUlRST_OT0_E_clINS0_5__altILm1EbEERKS11_EEDaSV_SX_, symObjAddr: 0x4904, symBinAddr: 0x100004EEC, symSize: 0x38 }
  - { offset: 0x1596A, size: 0x8, addend: 0x0, symName: __ZNSt3__116__variant_detail12__assignmentINS0_8__traitsIJDnbdNS_12basic_stringIcNS_11char_traitsIcEENS_9allocatorIcEEEENS_6vectorI9JsonValueNS6_ISA_EEEENS_3mapIS8_SA_NS_4lessIS8_EENS6_INS_4pairIKS8_SA_EEEEEEEEEE12__assign_altB8ne180100ILm1EbRKbEEvRNS0_5__altIXT_ET0_EEOT1_, symObjAddr: 0x493C, symBinAddr: 0x100004F24, symSize: 0x74 }
  - { offset: 0x15A3A, size: 0x8, addend: 0x0, symName: __ZZNSt3__116__variant_detail12__assignmentINS0_8__traitsIJDnbdNS_12basic_stringIcNS_11char_traitsIcEENS_9allocatorIcEEEENS_6vectorI9JsonValueNS6_ISA_EEEENS_3mapIS8_SA_NS_4lessIS8_EENS6_INS_4pairIKS8_SA_EEEEEEEEEE12__assign_altB8ne180100ILm1EbRKbEEvRNS0_5__altIXT_ET0_EEOT1_ENKUt_clB8ne180100ENS_17integral_constantIbLb1EEE, symObjAddr: 0x49B0, symBinAddr: 0x100004F98, symSize: 0x2C }
  - { offset: 0x15A70, size: 0x8, addend: 0x0, symName: __ZNSt3__116__variant_detail12__assignmentINS0_8__traitsIJDnbdNS_12basic_stringIcNS_11char_traitsIcEENS_9allocatorIcEEEENS_6vectorI9JsonValueNS6_ISA_EEEENS_3mapIS8_SA_NS_4lessIS8_EENS6_INS_4pairIKS8_SA_EEEEEEEEEE9__emplaceB8ne180100ILm1EJRKbEEERDaDpOT0_, symObjAddr: 0x49DC, symBinAddr: 0x100004FC4, symSize: 0x50 }
  - { offset: 0x15AC9, size: 0x8, addend: 0x0, symName: __ZNSt3__116__variant_detail6__ctorINS0_8__traitsIJDnbdNS_12basic_stringIcNS_11char_traitsIcEENS_9allocatorIcEEEENS_6vectorI9JsonValueNS6_ISA_EEEENS_3mapIS8_SA_NS_4lessIS8_EENS6_INS_4pairIKS8_SA_EEEEEEEEEE15__construct_altB8ne180100ILm1EbJRKbEEERT0_RNS0_5__altIXT_ESQ_EEDpOT1_, symObjAddr: 0x4A2C, symBinAddr: 0x100005014, symSize: 0x30 }
  - { offset: 0x15B1A, size: 0x8, addend: 0x0, symName: __ZNSt3__116__variant_detail8__access6__base9__get_altB8ne180100ILm1ERNS0_12__assignmentINS0_8__traitsIJDnbdNS_12basic_stringIcNS_11char_traitsIcEENS_9allocatorIcEEEENS_6vectorI9JsonValueNS9_ISD_EEEENS_3mapISB_SD_NS_4lessISB_EENS9_INS_4pairIKSB_SD_EEEEEEEEEEEEEODaOT0_, symObjAddr: 0x4A5C, symBinAddr: 0x100005044, symSize: 0x24 }
  - { offset: 0x15B57, size: 0x8, addend: 0x0, symName: __ZNSt3__116__variant_detail5__altILm1EbEC1B8ne180100IJRKbEEENS_10in_place_tEDpOT_, symObjAddr: 0x4A80, symBinAddr: 0x100005068, symSize: 0x34 }
  - { offset: 0x15BA7, size: 0x8, addend: 0x0, symName: __ZNSt3__116__variant_detail5__altILm1EbEC2B8ne180100IJRKbEEENS_10in_place_tEDpOT_, symObjAddr: 0x4AB4, symBinAddr: 0x10000509C, symSize: 0x28 }
  - { offset: 0x15BF7, size: 0x8, addend: 0x0, symName: __ZNSt3__116__variant_detail8__access7__union9__get_altB8ne180100IRKNS0_7__unionILNS0_6_TraitE1ELm0EJDnbdNS_12basic_stringIcNS_11char_traitsIcEENS_9allocatorIcEEEENS_6vectorI9JsonValueNS9_ISD_EEEENS_3mapISB_SD_NS_4lessISB_EENS9_INS_4pairIKSB_SD_EEEEEEEEELm1EEEODaOT_NS_16in_place_index_tIXT0_EEE, symObjAddr: 0x4ADC, symBinAddr: 0x1000050C4, symSize: 0x24 }
  - { offset: 0x15C3A, size: 0x8, addend: 0x0, symName: __ZNSt3__116__variant_detail8__access7__union9__get_altB8ne180100IRKNS0_7__unionILNS0_6_TraitE1ELm1EJbdNS_12basic_stringIcNS_11char_traitsIcEENS_9allocatorIcEEEENS_6vectorI9JsonValueNS9_ISD_EEEENS_3mapISB_SD_NS_4lessISB_EENS9_INS_4pairIKSB_SD_EEEEEEEEEEEODaOT_NS_16in_place_index_tILm0EEE, symObjAddr: 0x4B00, symBinAddr: 0x1000050E8, symSize: 0x14 }
  - { offset: 0x15C7E, size: 0x8, addend: 0x0, symName: __ZNSt3__116__variant_detail8__access6__base9__get_altB8ne180100ILm2ERKNS0_6__baseILNS0_6_TraitE1EJDnbdNS_12basic_stringIcNS_11char_traitsIcEENS_9allocatorIcEEEENS_6vectorI9JsonValueNS9_ISD_EEEENS_3mapISB_SD_NS_4lessISB_EENS9_INS_4pairIKSB_SD_EEEEEEEEEEEODaOT0_, symObjAddr: 0x4B48, symBinAddr: 0x100005130, symSize: 0x24 }
  - { offset: 0x15CB5, size: 0x8, addend: 0x0, symName: __ZZNSt3__116__variant_detail12__assignmentINS0_8__traitsIJDnbdNS_12basic_stringIcNS_11char_traitsIcEENS_9allocatorIcEEEENS_6vectorI9JsonValueNS6_ISA_EEEENS_3mapIS8_SA_NS_4lessIS8_EENS6_INS_4pairIKS8_SA_EEEEEEEEEE16__generic_assignB8ne180100IRKNS0_17__copy_assignmentISL_LNS0_6_TraitE1EEEEEvOT_ENKUlRST_OT0_E_clINS0_5__altILm2EdEERKS11_EEDaSV_SX_, symObjAddr: 0x4B6C, symBinAddr: 0x100005154, symSize: 0x38 }
  - { offset: 0x15D1A, size: 0x8, addend: 0x0, symName: __ZNSt3__116__variant_detail12__assignmentINS0_8__traitsIJDnbdNS_12basic_stringIcNS_11char_traitsIcEENS_9allocatorIcEEEENS_6vectorI9JsonValueNS6_ISA_EEEENS_3mapIS8_SA_NS_4lessIS8_EENS6_INS_4pairIKS8_SA_EEEEEEEEEE12__assign_altB8ne180100ILm2EdRKdEEvRNS0_5__altIXT_ET0_EEOT1_, symObjAddr: 0x4BA4, symBinAddr: 0x10000518C, symSize: 0x70 }
  - { offset: 0x15DEA, size: 0x8, addend: 0x0, symName: __ZZNSt3__116__variant_detail12__assignmentINS0_8__traitsIJDnbdNS_12basic_stringIcNS_11char_traitsIcEENS_9allocatorIcEEEENS_6vectorI9JsonValueNS6_ISA_EEEENS_3mapIS8_SA_NS_4lessIS8_EENS6_INS_4pairIKS8_SA_EEEEEEEEEE12__assign_altB8ne180100ILm2EdRKdEEvRNS0_5__altIXT_ET0_EEOT1_ENKUt_clB8ne180100ENS_17integral_constantIbLb1EEE, symObjAddr: 0x4C14, symBinAddr: 0x1000051FC, symSize: 0x2C }
  - { offset: 0x15E26, size: 0x8, addend: 0x0, symName: __ZNSt3__116__variant_detail12__assignmentINS0_8__traitsIJDnbdNS_12basic_stringIcNS_11char_traitsIcEENS_9allocatorIcEEEENS_6vectorI9JsonValueNS6_ISA_EEEENS_3mapIS8_SA_NS_4lessIS8_EENS6_INS_4pairIKS8_SA_EEEEEEEEEE9__emplaceB8ne180100ILm2EJRKdEEERDaDpOT0_, symObjAddr: 0x4C40, symBinAddr: 0x100005228, symSize: 0x50 }
  - { offset: 0x15E7F, size: 0x8, addend: 0x0, symName: __ZNSt3__116__variant_detail6__ctorINS0_8__traitsIJDnbdNS_12basic_stringIcNS_11char_traitsIcEENS_9allocatorIcEEEENS_6vectorI9JsonValueNS6_ISA_EEEENS_3mapIS8_SA_NS_4lessIS8_EENS6_INS_4pairIKS8_SA_EEEEEEEEEE15__construct_altB8ne180100ILm2EdJRKdEEERT0_RNS0_5__altIXT_ESQ_EEDpOT1_, symObjAddr: 0x4C90, symBinAddr: 0x100005278, symSize: 0x30 }
  - { offset: 0x15ED0, size: 0x8, addend: 0x0, symName: __ZNSt3__116__variant_detail8__access6__base9__get_altB8ne180100ILm2ERNS0_12__assignmentINS0_8__traitsIJDnbdNS_12basic_stringIcNS_11char_traitsIcEENS_9allocatorIcEEEENS_6vectorI9JsonValueNS9_ISD_EEEENS_3mapISB_SD_NS_4lessISB_EENS9_INS_4pairIKSB_SD_EEEEEEEEEEEEEODaOT0_, symObjAddr: 0x4CC0, symBinAddr: 0x1000052A8, symSize: 0x24 }
  - { offset: 0x15F0D, size: 0x8, addend: 0x0, symName: __ZNSt3__116__variant_detail5__altILm2EdEC1B8ne180100IJRKdEEENS_10in_place_tEDpOT_, symObjAddr: 0x4CE4, symBinAddr: 0x1000052CC, symSize: 0x34 }
  - { offset: 0x15F5D, size: 0x8, addend: 0x0, symName: __ZNSt3__116__variant_detail5__altILm2EdEC2B8ne180100IJRKdEEENS_10in_place_tEDpOT_, symObjAddr: 0x4D18, symBinAddr: 0x100005300, symSize: 0x24 }
  - { offset: 0x15FAD, size: 0x8, addend: 0x0, symName: __ZNSt3__116__variant_detail8__access7__union9__get_altB8ne180100IRKNS0_7__unionILNS0_6_TraitE1ELm0EJDnbdNS_12basic_stringIcNS_11char_traitsIcEENS_9allocatorIcEEEENS_6vectorI9JsonValueNS9_ISD_EEEENS_3mapISB_SD_NS_4lessISB_EENS9_INS_4pairIKSB_SD_EEEEEEEEELm2EEEODaOT_NS_16in_place_index_tIXT0_EEE, symObjAddr: 0x4D3C, symBinAddr: 0x100005324, symSize: 0x24 }
  - { offset: 0x15FF0, size: 0x8, addend: 0x0, symName: __ZNSt3__116__variant_detail8__access7__union9__get_altB8ne180100IRKNS0_7__unionILNS0_6_TraitE1ELm1EJbdNS_12basic_stringIcNS_11char_traitsIcEENS_9allocatorIcEEEENS_6vectorI9JsonValueNS9_ISD_EEEENS_3mapISB_SD_NS_4lessISB_EENS9_INS_4pairIKSB_SD_EEEEEEEEELm1EEEODaOT_NS_16in_place_index_tIXT0_EEE, symObjAddr: 0x4D60, symBinAddr: 0x100005348, symSize: 0x24 }
  - { offset: 0x16033, size: 0x8, addend: 0x0, symName: __ZNSt3__116__variant_detail8__access7__union9__get_altB8ne180100IRKNS0_7__unionILNS0_6_TraitE1ELm2EJdNS_12basic_stringIcNS_11char_traitsIcEENS_9allocatorIcEEEENS_6vectorI9JsonValueNS9_ISD_EEEENS_3mapISB_SD_NS_4lessISB_EENS9_INS_4pairIKSB_SD_EEEEEEEEEEEODaOT_NS_16in_place_index_tILm0EEE, symObjAddr: 0x4D84, symBinAddr: 0x10000536C, symSize: 0x14 }
  - { offset: 0x16077, size: 0x8, addend: 0x0, symName: __ZNSt3__116__variant_detail8__access6__base9__get_altB8ne180100ILm3ERKNS0_6__baseILNS0_6_TraitE1EJDnbdNS_12basic_stringIcNS_11char_traitsIcEENS_9allocatorIcEEEENS_6vectorI9JsonValueNS9_ISD_EEEENS_3mapISB_SD_NS_4lessISB_EENS9_INS_4pairIKSB_SD_EEEEEEEEEEEODaOT0_, symObjAddr: 0x4DCC, symBinAddr: 0x1000053B4, symSize: 0x24 }
  - { offset: 0x160AE, size: 0x8, addend: 0x0, symName: __ZZNSt3__116__variant_detail12__assignmentINS0_8__traitsIJDnbdNS_12basic_stringIcNS_11char_traitsIcEENS_9allocatorIcEEEENS_6vectorI9JsonValueNS6_ISA_EEEENS_3mapIS8_SA_NS_4lessIS8_EENS6_INS_4pairIKS8_SA_EEEEEEEEEE16__generic_assignB8ne180100IRKNS0_17__copy_assignmentISL_LNS0_6_TraitE1EEEEEvOT_ENKUlRST_OT0_E_clINS0_5__altILm3ES8_EERKS11_EEDaSV_SX_, symObjAddr: 0x4DF0, symBinAddr: 0x1000053D8, symSize: 0x38 }
  - { offset: 0x16108, size: 0x8, addend: 0x0, symName: __ZNSt3__116__variant_detail12__assignmentINS0_8__traitsIJDnbdNS_12basic_stringIcNS_11char_traitsIcEENS_9allocatorIcEEEENS_6vectorI9JsonValueNS6_ISA_EEEENS_3mapIS8_SA_NS_4lessIS8_EENS6_INS_4pairIKS8_SA_EEEEEEEEEE12__assign_altB8ne180100ILm3ES8_RSH_EEvRNS0_5__altIXT_ET0_EEOT1_, symObjAddr: 0x4E28, symBinAddr: 0x100005410, symSize: 0x6C }
  - { offset: 0x161D8, size: 0x8, addend: 0x0, symName: __ZZNSt3__116__variant_detail12__assignmentINS0_8__traitsIJDnbdNS_12basic_stringIcNS_11char_traitsIcEENS_9allocatorIcEEEENS_6vectorI9JsonValueNS6_ISA_EEEENS_3mapIS8_SA_NS_4lessIS8_EENS6_INS_4pairIKS8_SA_EEEEEEEEEE12__assign_altB8ne180100ILm3ES8_RSH_EEvRNS0_5__altIXT_ET0_EEOT1_ENKUt_clB8ne180100ENS_17integral_constantIbLb0EEE, symObjAddr: 0x4E94, symBinAddr: 0x10000547C, symSize: 0x70 }
  - { offset: 0x16214, size: 0x8, addend: 0x0, symName: __ZNSt3__116__variant_detail12__assignmentINS0_8__traitsIJDnbdNS_12basic_stringIcNS_11char_traitsIcEENS_9allocatorIcEEEENS_6vectorI9JsonValueNS6_ISA_EEEENS_3mapIS8_SA_NS_4lessIS8_EENS6_INS_4pairIKS8_SA_EEEEEEEEEE9__emplaceB8ne180100ILm3EJS8_EEERDaDpOT0_, symObjAddr: 0x4F04, symBinAddr: 0x1000054EC, symSize: 0x50 }
  - { offset: 0x1626D, size: 0x8, addend: 0x0, symName: __ZNSt3__116__variant_detail6__ctorINS0_8__traitsIJDnbdNS_12basic_stringIcNS_11char_traitsIcEENS_9allocatorIcEEEENS_6vectorI9JsonValueNS6_ISA_EEEENS_3mapIS8_SA_NS_4lessIS8_EENS6_INS_4pairIKS8_SA_EEEEEEEEEE15__construct_altB8ne180100ILm3ES8_JS8_EEERT0_RNS0_5__altIXT_ESO_EEDpOT1_, symObjAddr: 0x4F54, symBinAddr: 0x10000553C, symSize: 0x30 }
  - { offset: 0x162BE, size: 0x8, addend: 0x0, symName: __ZNSt3__116__variant_detail8__access6__base9__get_altB8ne180100ILm3ERNS0_12__assignmentINS0_8__traitsIJDnbdNS_12basic_stringIcNS_11char_traitsIcEENS_9allocatorIcEEEENS_6vectorI9JsonValueNS9_ISD_EEEENS_3mapISB_SD_NS_4lessISB_EENS9_INS_4pairIKSB_SD_EEEEEEEEEEEEEODaOT0_, symObjAddr: 0x4F84, symBinAddr: 0x10000556C, symSize: 0x24 }
  - { offset: 0x162F5, size: 0x8, addend: 0x0, symName: __ZNSt3__116__variant_detail5__altILm3ENS_12basic_stringIcNS_11char_traitsIcEENS_9allocatorIcEEEEEC1B8ne180100IJS7_EEENS_10in_place_tEDpOT_, symObjAddr: 0x4FA8, symBinAddr: 0x100005590, symSize: 0x34 }
  - { offset: 0x16345, size: 0x8, addend: 0x0, symName: __ZNSt3__116__variant_detail5__altILm3ENS_12basic_stringIcNS_11char_traitsIcEENS_9allocatorIcEEEEEC2B8ne180100IJS7_EEENS_10in_place_tEDpOT_, symObjAddr: 0x4FDC, symBinAddr: 0x1000055C4, symSize: 0x34 }
  - { offset: 0x16395, size: 0x8, addend: 0x0, symName: __ZNSt3__112basic_stringIcNS_11char_traitsIcEENS_9allocatorIcEEEC1B8ne180100EOS5_, symObjAddr: 0x5010, symBinAddr: 0x1000055F8, symSize: 0x34 }
  - { offset: 0x163CE, size: 0x8, addend: 0x0, symName: __ZNSt3__112basic_stringIcNS_11char_traitsIcEENS_9allocatorIcEEEC2B8ne180100EOS5_, symObjAddr: 0x5044, symBinAddr: 0x10000562C, symSize: 0xB8 }
  - { offset: 0x16439, size: 0x8, addend: 0x0, symName: __ZZNSt3__112basic_stringIcNS_11char_traitsIcEENS_9allocatorIcEEEC1B8ne180100EOS5_ENKUlRS5_E_clES7_, symObjAddr: 0x50FC, symBinAddr: 0x1000056E4, symSize: 0x40 }
  - { offset: 0x16472, size: 0x8, addend: 0x0, symName: __ZNSt3__117__compressed_pairINS_12basic_stringIcNS_11char_traitsIcEENS_9allocatorIcEEE5__repES5_E5firstB8ne180100Ev, symObjAddr: 0x513C, symBinAddr: 0x100005724, symSize: 0x24 }
  - { offset: 0x16498, size: 0x8, addend: 0x0, symName: __ZNKSt3__112basic_stringIcNS_11char_traitsIcEENS_9allocatorIcEEE14__annotate_newB8ne180100Em, symObjAddr: 0x5160, symBinAddr: 0x100005748, symSize: 0x14 }
  - { offset: 0x164CD, size: 0x8, addend: 0x0, symName: __ZNKSt3__112basic_stringIcNS_11char_traitsIcEENS_9allocatorIcEEE17__annotate_deleteB8ne180100Ev, symObjAddr: 0x5174, symBinAddr: 0x10000575C, symSize: 0x10 }
  - { offset: 0x164F3, size: 0x8, addend: 0x0, symName: __ZNSt3__122__compressed_pair_elemINS_12basic_stringIcNS_11char_traitsIcEENS_9allocatorIcEEE5__repELi0ELb0EE5__getB8ne180100Ev, symObjAddr: 0x5184, symBinAddr: 0x10000576C, symSize: 0x14 }
  - { offset: 0x16519, size: 0x8, addend: 0x0, symName: __ZNSt3__116__variant_detail8__access7__union9__get_altB8ne180100IRKNS0_7__unionILNS0_6_TraitE1ELm0EJDnbdNS_12basic_stringIcNS_11char_traitsIcEENS_9allocatorIcEEEENS_6vectorI9JsonValueNS9_ISD_EEEENS_3mapISB_SD_NS_4lessISB_EENS9_INS_4pairIKSB_SD_EEEEEEEEELm3EEEODaOT_NS_16in_place_index_tIXT0_EEE, symObjAddr: 0x5198, symBinAddr: 0x100005780, symSize: 0x24 }
  - { offset: 0x1655C, size: 0x8, addend: 0x0, symName: __ZNSt3__116__variant_detail8__access7__union9__get_altB8ne180100IRKNS0_7__unionILNS0_6_TraitE1ELm1EJbdNS_12basic_stringIcNS_11char_traitsIcEENS_9allocatorIcEEEENS_6vectorI9JsonValueNS9_ISD_EEEENS_3mapISB_SD_NS_4lessISB_EENS9_INS_4pairIKSB_SD_EEEEEEEEELm2EEEODaOT_NS_16in_place_index_tIXT0_EEE, symObjAddr: 0x51BC, symBinAddr: 0x1000057A4, symSize: 0x24 }
  - { offset: 0x1659F, size: 0x8, addend: 0x0, symName: __ZNSt3__116__variant_detail8__access7__union9__get_altB8ne180100IRKNS0_7__unionILNS0_6_TraitE1ELm2EJdNS_12basic_stringIcNS_11char_traitsIcEENS_9allocatorIcEEEENS_6vectorI9JsonValueNS9_ISD_EEEENS_3mapISB_SD_NS_4lessISB_EENS9_INS_4pairIKSB_SD_EEEEEEEEELm1EEEODaOT_NS_16in_place_index_tIXT0_EEE, symObjAddr: 0x51E0, symBinAddr: 0x1000057C8, symSize: 0x24 }
  - { offset: 0x165E2, size: 0x8, addend: 0x0, symName: __ZNSt3__116__variant_detail8__access7__union9__get_altB8ne180100IRKNS0_7__unionILNS0_6_TraitE1ELm3EJNS_12basic_stringIcNS_11char_traitsIcEENS_9allocatorIcEEEENS_6vectorI9JsonValueNS9_ISD_EEEENS_3mapISB_SD_NS_4lessISB_EENS9_INS_4pairIKSB_SD_EEEEEEEEEEEODaOT_NS_16in_place_index_tILm0EEE, symObjAddr: 0x5204, symBinAddr: 0x1000057EC, symSize: 0x14 }
  - { offset: 0x16626, size: 0x8, addend: 0x0, symName: __ZNSt3__116__variant_detail8__access6__base9__get_altB8ne180100ILm4ERKNS0_6__baseILNS0_6_TraitE1EJDnbdNS_12basic_stringIcNS_11char_traitsIcEENS_9allocatorIcEEEENS_6vectorI9JsonValueNS9_ISD_EEEENS_3mapISB_SD_NS_4lessISB_EENS9_INS_4pairIKSB_SD_EEEEEEEEEEEODaOT0_, symObjAddr: 0x524C, symBinAddr: 0x100005834, symSize: 0x24 }
  - { offset: 0x1665D, size: 0x8, addend: 0x0, symName: __ZZNSt3__116__variant_detail12__assignmentINS0_8__traitsIJDnbdNS_12basic_stringIcNS_11char_traitsIcEENS_9allocatorIcEEEENS_6vectorI9JsonValueNS6_ISA_EEEENS_3mapIS8_SA_NS_4lessIS8_EENS6_INS_4pairIKS8_SA_EEEEEEEEEE16__generic_assignB8ne180100IRKNS0_17__copy_assignmentISL_LNS0_6_TraitE1EEEEEvOT_ENKUlRST_OT0_E_clINS0_5__altILm4ESC_EERKS11_EEDaSV_SX_, symObjAddr: 0x5270, symBinAddr: 0x100005858, symSize: 0x38 }
  - { offset: 0x166B7, size: 0x8, addend: 0x0, symName: __ZNSt3__116__variant_detail12__assignmentINS0_8__traitsIJDnbdNS_12basic_stringIcNS_11char_traitsIcEENS_9allocatorIcEEEENS_6vectorI9JsonValueNS6_ISA_EEEENS_3mapIS8_SA_NS_4lessIS8_EENS6_INS_4pairIKS8_SA_EEEEEEEEEE12__assign_altB8ne180100ILm4ESC_RKSC_EEvRNS0_5__altIXT_ET0_EEOT1_, symObjAddr: 0x52A8, symBinAddr: 0x100005890, symSize: 0x6C }
  - { offset: 0x1677C, size: 0x8, addend: 0x0, symName: __ZNSt3__16vectorI9JsonValueNS_9allocatorIS1_EEEaSB8ne180100ERKS4_, symObjAddr: 0x5314, symBinAddr: 0x1000058FC, symSize: 0x68 }
  - { offset: 0x167BE, size: 0x8, addend: 0x0, symName: __ZZNSt3__116__variant_detail12__assignmentINS0_8__traitsIJDnbdNS_12basic_stringIcNS_11char_traitsIcEENS_9allocatorIcEEEENS_6vectorI9JsonValueNS6_ISA_EEEENS_3mapIS8_SA_NS_4lessIS8_EENS6_INS_4pairIKS8_SA_EEEEEEEEEE12__assign_altB8ne180100ILm4ESC_RKSC_EEvRNS0_5__altIXT_ET0_EEOT1_ENKUt_clB8ne180100ENS_17integral_constantIbLb0EEE, symObjAddr: 0x537C, symBinAddr: 0x100005964, symSize: 0x70 }
  - { offset: 0x167F4, size: 0x8, addend: 0x0, symName: __ZNSt3__16vectorI9JsonValueNS_9allocatorIS1_EEE19__copy_assign_allocB8ne180100ERKS4_, symObjAddr: 0x53EC, symBinAddr: 0x1000059D4, symSize: 0x2C }
  - { offset: 0x16829, size: 0x8, addend: 0x0, symName: __ZNSt3__16vectorI9JsonValueNS_9allocatorIS1_EEE6assignIPS1_Li0EEEvT_S7_, symObjAddr: 0x5418, symBinAddr: 0x100005A00, symSize: 0x5C }
  - { offset: 0x1687E, size: 0x8, addend: 0x0, symName: __ZNSt3__16vectorI9JsonValueNS_9allocatorIS1_EEE19__copy_assign_allocB8ne180100ERKS4_NS_17integral_constantIbLb0EEE, symObjAddr: 0x5474, symBinAddr: 0x100005A5C, symSize: 0x14 }
  - { offset: 0x168BC, size: 0x8, addend: 0x0, symName: __ZNSt3__16vectorI9JsonValueNS_9allocatorIS1_EEE18__assign_with_sizeB8ne180100IPS1_S6_EEvT_T0_l, symObjAddr: 0x5488, symBinAddr: 0x100005A70, symSize: 0x164 }
  - { offset: 0x1696C, size: 0x8, addend: 0x0, symName: __ZNKSt3__16vectorI9JsonValueNS_9allocatorIS1_EEE4sizeB8ne180100Ev, symObjAddr: 0x5618, symBinAddr: 0x100005C00, symSize: 0x28 }
  - { offset: 0x16992, size: 0x8, addend: 0x0, symName: __ZNSt3__16vectorI9JsonValueNS_9allocatorIS1_EEE18__construct_at_endIPS1_S6_EEvT_T0_m, symObjAddr: 0x56B4, symBinAddr: 0x100005C9C, symSize: 0x8C }
  - { offset: 0x16A08, size: 0x8, addend: 0x0, symName: __ZNSt3__16vectorI9JsonValueNS_9allocatorIS1_EEE17__destruct_at_endB8ne180100EPS1_, symObjAddr: 0x5784, symBinAddr: 0x100005D6C, symSize: 0x4C }
  - { offset: 0x16A4C, size: 0x8, addend: 0x0, symName: __ZNSt3__16vectorI9JsonValueNS_9allocatorIS1_EEE13__vdeallocateEv, symObjAddr: 0x57D0, symBinAddr: 0x100005DB8, symSize: 0x94 }
  - { offset: 0x16A74, size: 0x8, addend: 0x0, symName: __ZNSt3__16vectorI9JsonValueNS_9allocatorIS1_EEE11__vallocateB8ne180100Em, symObjAddr: 0x5864, symBinAddr: 0x100005E4C, symSize: 0xAC }
  - { offset: 0x16AB8, size: 0x8, addend: 0x0, symName: __ZNKSt3__16vectorI9JsonValueNS_9allocatorIS1_EEE11__recommendB8ne180100Em, symObjAddr: 0x5910, symBinAddr: 0x100005EF8, symSize: 0xB4 }
  - { offset: 0x16B29, size: 0x8, addend: 0x0, symName: __ZNSt3__16vectorI9JsonValueNS_9allocatorIS1_EEE21_ConstructTransactionC1B8ne180100ERS4_m, symObjAddr: 0x5A38, symBinAddr: 0x100006020, symSize: 0x3C }
  - { offset: 0x16B71, size: 0x8, addend: 0x0, symName: __ZNSt3__16vectorI9JsonValueNS_9allocatorIS1_EEE21_ConstructTransactionD1B8ne180100Ev, symObjAddr: 0x5AF4, symBinAddr: 0x1000060DC, symSize: 0x2C }
  - { offset: 0x16B9B, size: 0x8, addend: 0x0, symName: __ZNSt3__16vectorI9JsonValueNS_9allocatorIS1_EEE21_ConstructTransactionC2B8ne180100ERS4_m, symObjAddr: 0x5B20, symBinAddr: 0x100006108, symSize: 0x44 }
  - { offset: 0x16C06, size: 0x8, addend: 0x0, symName: __ZNSt3__14pairIP9JsonValueS2_EC1B8ne180100IS2_S2_Li0EEEOT_OT0_, symObjAddr: 0x5D50, symBinAddr: 0x100006338, symSize: 0x3C }
  - { offset: 0x16C64, size: 0x8, addend: 0x0, symName: __ZNSt3__14pairIP9JsonValueS2_EC2B8ne180100IS2_S2_Li0EEEOT_OT0_, symObjAddr: 0x5D8C, symBinAddr: 0x100006374, symSize: 0x34 }
  - { offset: 0x16CC2, size: 0x8, addend: 0x0, symName: __ZNSt3__129_AllocatorDestroyRangeReverseINS_9allocatorI9JsonValueEEPS2_EC1B8ne180100ERS3_RS4_S7_, symObjAddr: 0x5E0C, symBinAddr: 0x1000063F4, symSize: 0x44 }
  - { offset: 0x16D19, size: 0x8, addend: 0x0, symName: __ZNSt3__116allocator_traitsINS_9allocatorI9JsonValueEEE9constructB8ne180100IS2_JRS2_EvEEvRS3_PT_DpOT0_, symObjAddr: 0x5E50, symBinAddr: 0x100006438, symSize: 0x34 }
  - { offset: 0x16D70, size: 0x8, addend: 0x0, symName: __ZNSt3__128__exception_guard_exceptionsINS_29_AllocatorDestroyRangeReverseINS_9allocatorI9JsonValueEEPS3_EEE10__completeB8ne180100Ev, symObjAddr: 0x5E84, symBinAddr: 0x10000646C, symSize: 0x1C }
  - { offset: 0x16D96, size: 0x8, addend: 0x0, symName: __ZNSt3__128__exception_guard_exceptionsINS_29_AllocatorDestroyRangeReverseINS_9allocatorI9JsonValueEEPS3_EEED1B8ne180100Ev, symObjAddr: 0x5EA0, symBinAddr: 0x100006488, symSize: 0x2C }
  - { offset: 0x16DC0, size: 0x8, addend: 0x0, symName: __ZNSt3__128__exception_guard_exceptionsINS_29_AllocatorDestroyRangeReverseINS_9allocatorI9JsonValueEEPS3_EEEC1B8ne180100ES6_, symObjAddr: 0x5ECC, symBinAddr: 0x1000064B4, symSize: 0x34 }
  - { offset: 0x16DF9, size: 0x8, addend: 0x0, symName: __ZNSt3__128__exception_guard_exceptionsINS_29_AllocatorDestroyRangeReverseINS_9allocatorI9JsonValueEEPS3_EEEC2B8ne180100ES6_, symObjAddr: 0x5F00, symBinAddr: 0x1000064E8, symSize: 0x30 }
  - { offset: 0x16E32, size: 0x8, addend: 0x0, symName: __ZNSt3__129_AllocatorDestroyRangeReverseINS_9allocatorI9JsonValueEEPS2_EC2B8ne180100ERS3_RS4_S7_, symObjAddr: 0x5F30, symBinAddr: 0x100006518, symSize: 0x38 }
  - { offset: 0x16E89, size: 0x8, addend: 0x0, symName: __ZNSt3__19allocatorI9JsonValueE9constructB8ne180100IS1_JRS1_EEEvPT_DpOT0_, symObjAddr: 0x5F68, symBinAddr: 0x100006550, symSize: 0x30 }
  - { offset: 0x16EDF, size: 0x8, addend: 0x0, symName: __ZN9JsonValueC1ERKS_, symObjAddr: 0x5F98, symBinAddr: 0x100006580, symSize: 0x34 }
  - { offset: 0x16F14, size: 0x8, addend: 0x0, symName: __ZN9JsonValueC2ERKS_, symObjAddr: 0x5FCC, symBinAddr: 0x1000065B4, symSize: 0x34 }
  - { offset: 0x16F49, size: 0x8, addend: 0x0, symName: __ZNSt3__17variantIJDnbdNS_12basic_stringIcNS_11char_traitsIcEENS_9allocatorIcEEEENS_6vectorI9JsonValueNS4_IS8_EEEENS_3mapIS6_S8_NS_4lessIS6_EENS4_INS_4pairIKS6_S8_EEEEEEEEC2B8ne180100ERKSJ_, symObjAddr: 0x6000, symBinAddr: 0x1000065E8, symSize: 0x34 }
  - { offset: 0x16F7F, size: 0x8, addend: 0x0, symName: __ZNSt3__116__variant_detail6__implIJDnbdNS_12basic_stringIcNS_11char_traitsIcEENS_9allocatorIcEEEENS_6vectorI9JsonValueNS5_IS9_EEEENS_3mapIS7_S9_NS_4lessIS7_EENS5_INS_4pairIKS7_S9_EEEEEEEEC1B8ne180100ERKSK_, symObjAddr: 0x6034, symBinAddr: 0x10000661C, symSize: 0x34 }
  - { offset: 0x16FB5, size: 0x8, addend: 0x0, symName: __ZNSt3__116__variant_detail6__implIJDnbdNS_12basic_stringIcNS_11char_traitsIcEENS_9allocatorIcEEEENS_6vectorI9JsonValueNS5_IS9_EEEENS_3mapIS7_S9_NS_4lessIS7_EENS5_INS_4pairIKS7_S9_EEEEEEEEC2B8ne180100ERKSK_, symObjAddr: 0x6068, symBinAddr: 0x100006650, symSize: 0x34 }
  - { offset: 0x16FEB, size: 0x8, addend: 0x0, symName: __ZNSt3__116__variant_detail17__copy_assignmentINS0_8__traitsIJDnbdNS_12basic_stringIcNS_11char_traitsIcEENS_9allocatorIcEEEENS_6vectorI9JsonValueNS6_ISA_EEEENS_3mapIS8_SA_NS_4lessIS8_EENS6_INS_4pairIKS8_SA_EEEEEEEEELNS0_6_TraitE1EEC2ERKSN_, symObjAddr: 0x609C, symBinAddr: 0x100006684, symSize: 0x34 }
  - { offset: 0x17021, size: 0x8, addend: 0x0, symName: __ZNSt3__116__variant_detail17__move_assignmentINS0_8__traitsIJDnbdNS_12basic_stringIcNS_11char_traitsIcEENS_9allocatorIcEEEENS_6vectorI9JsonValueNS6_ISA_EEEENS_3mapIS8_SA_NS_4lessIS8_EENS6_INS_4pairIKS8_SA_EEEEEEEEELNS0_6_TraitE1EEC2ERKSN_, symObjAddr: 0x60D0, symBinAddr: 0x1000066B8, symSize: 0x34 }
  - { offset: 0x17062, size: 0x8, addend: 0x0, symName: __ZNSt3__116__variant_detail12__assignmentINS0_8__traitsIJDnbdNS_12basic_stringIcNS_11char_traitsIcEENS_9allocatorIcEEEENS_6vectorI9JsonValueNS6_ISA_EEEENS_3mapIS8_SA_NS_4lessIS8_EENS6_INS_4pairIKS8_SA_EEEEEEEEEEC2ERKSM_, symObjAddr: 0x6104, symBinAddr: 0x1000066EC, symSize: 0x34 }
  - { offset: 0x17098, size: 0x8, addend: 0x0, symName: __ZNSt3__116__variant_detail18__copy_constructorINS0_8__traitsIJDnbdNS_12basic_stringIcNS_11char_traitsIcEENS_9allocatorIcEEEENS_6vectorI9JsonValueNS6_ISA_EEEENS_3mapIS8_SA_NS_4lessIS8_EENS6_INS_4pairIKS8_SA_EEEEEEEEELNS0_6_TraitE1EEC2ERKSN_, symObjAddr: 0x6138, symBinAddr: 0x100006720, symSize: 0x64 }
  - { offset: 0x170D1, size: 0x8, addend: 0x0, symName: __ZNSt3__116__variant_detail18__copy_constructorINS0_8__traitsIJDnbdNS_12basic_stringIcNS_11char_traitsIcEENS_9allocatorIcEEEENS_6vectorI9JsonValueNS6_ISA_EEEENS_3mapIS8_SA_NS_4lessIS8_EENS6_INS_4pairIKS8_SA_EEEEEEEEELNS0_6_TraitE1EECI2NS0_6__baseILSM_1EJDnbdS8_SC_SK_EEEENS0_13__valueless_tE, symObjAddr: 0x619C, symBinAddr: 0x100006784, symSize: 0x2C }
  - { offset: 0x1710D, size: 0x8, addend: 0x0, symName: __ZNSt3__116__variant_detail6__ctorINS0_8__traitsIJDnbdNS_12basic_stringIcNS_11char_traitsIcEENS_9allocatorIcEEEENS_6vectorI9JsonValueNS6_ISA_EEEENS_3mapIS8_SA_NS_4lessIS8_EENS6_INS_4pairIKS8_SA_EEEEEEEEEE19__generic_constructB8ne180100IRKNS0_18__copy_constructorISL_LNS0_6_TraitE1EEEEEvRSM_OT_, symObjAddr: 0x61C8, symBinAddr: 0x1000067B0, symSize: 0x68 }
  - { offset: 0x17270, size: 0x8, addend: 0x0, symName: __ZNSt3__116__variant_detail18__copy_constructorINS0_8__traitsIJDnbdNS_12basic_stringIcNS_11char_traitsIcEENS_9allocatorIcEEEENS_6vectorI9JsonValueNS6_ISA_EEEENS_3mapIS8_SA_NS_4lessIS8_EENS6_INS_4pairIKS8_SA_EEEEEEEEELNS0_6_TraitE1EED2Ev, symObjAddr: 0x6230, symBinAddr: 0x100006818, symSize: 0x2C }
  - { offset: 0x1729A, size: 0x8, addend: 0x0, symName: __ZNSt3__116__variant_detail18__move_constructorINS0_8__traitsIJDnbdNS_12basic_stringIcNS_11char_traitsIcEENS_9allocatorIcEEEENS_6vectorI9JsonValueNS6_ISA_EEEENS_3mapIS8_SA_NS_4lessIS8_EENS6_INS_4pairIKS8_SA_EEEEEEEEELNS0_6_TraitE1EECI2NS0_6__baseILSM_1EJDnbdS8_SC_SK_EEEENS0_13__valueless_tE, symObjAddr: 0x625C, symBinAddr: 0x100006844, symSize: 0x2C }
  - { offset: 0x172D6, size: 0x8, addend: 0x0, symName: __ZNSt3__116__variant_detail6__ctorINS0_8__traitsIJDnbdNS_12basic_stringIcNS_11char_traitsIcEENS_9allocatorIcEEEENS_6vectorI9JsonValueNS6_ISA_EEEENS_3mapIS8_SA_NS_4lessIS8_EENS6_INS_4pairIKS8_SA_EEEEEEEEEECI2NS0_6__baseILNS0_6_TraitE1EJDnbdS8_SC_SK_EEEENS0_13__valueless_tE, symObjAddr: 0x6288, symBinAddr: 0x100006870, symSize: 0x2C }
  - { offset: 0x1730C, size: 0x8, addend: 0x0, symName: __ZNSt3__116__variant_detail6__dtorINS0_8__traitsIJDnbdNS_12basic_stringIcNS_11char_traitsIcEENS_9allocatorIcEEEENS_6vectorI9JsonValueNS6_ISA_EEEENS_3mapIS8_SA_NS_4lessIS8_EENS6_INS_4pairIKS8_SA_EEEEEEEEELNS0_6_TraitE1EECI2NS0_6__baseILSM_1EJDnbdS8_SC_SK_EEEENS0_13__valueless_tE, symObjAddr: 0x62B4, symBinAddr: 0x10000689C, symSize: 0x2C }
  - { offset: 0x17342, size: 0x8, addend: 0x0, symName: __ZNSt3__116__variant_detail6__baseILNS0_6_TraitE1EJDnbdNS_12basic_stringIcNS_11char_traitsIcEENS_9allocatorIcEEEENS_6vectorI9JsonValueNS6_ISA_EEEENS_3mapIS8_SA_NS_4lessIS8_EENS6_INS_4pairIKS8_SA_EEEEEEEEC2B8ne180100ENS0_13__valueless_tE, symObjAddr: 0x62E0, symBinAddr: 0x1000068C8, symSize: 0x34 }
  - { offset: 0x1737B, size: 0x8, addend: 0x0, symName: __ZNSt3__116__variant_detail7__unionILNS0_6_TraitE1ELm0EJDnbdNS_12basic_stringIcNS_11char_traitsIcEENS_9allocatorIcEEEENS_6vectorI9JsonValueNS6_ISA_EEEENS_3mapIS8_SA_NS_4lessIS8_EENS6_INS_4pairIKS8_SA_EEEEEEEEC1B8ne180100ENS0_13__valueless_tE, symObjAddr: 0x6314, symBinAddr: 0x1000068FC, symSize: 0x2C }
  - { offset: 0x173B1, size: 0x8, addend: 0x0, symName: __ZNSt3__116__variant_detail7__unionILNS0_6_TraitE1ELm0EJDnbdNS_12basic_stringIcNS_11char_traitsIcEENS_9allocatorIcEEEENS_6vectorI9JsonValueNS6_ISA_EEEENS_3mapIS8_SA_NS_4lessIS8_EENS6_INS_4pairIKS8_SA_EEEEEEEEC2B8ne180100ENS0_13__valueless_tE, symObjAddr: 0x6340, symBinAddr: 0x100006928, symSize: 0x18 }
  - { offset: 0x173ED, size: 0x8, addend: 0x0, symName: __ZNSt3__116__variant_detail12__visitation6__base14__visit_alt_atB8ne180100IZNS0_6__ctorINS0_8__traitsIJDnbdNS_12basic_stringIcNS_11char_traitsIcEENS_9allocatorIcEEEENS_6vectorI9JsonValueNS9_ISD_EEEENS_3mapISB_SD_NS_4lessISB_EENS9_INS_4pairIKSB_SD_EEEEEEEEEE19__generic_constructB8ne180100IRKNS0_18__copy_constructorISO_LNS0_6_TraitE1EEEEEvRSP_OT_EUlRSX_OT0_E_JSW_SV_EEEDcmSY_DpOT0_, symObjAddr: 0x6358, symBinAddr: 0x100006940, symSize: 0x84 }
  - { offset: 0x17466, size: 0x8, addend: 0x0, symName: __ZNSt3__116__variant_detail12__visitation6__base12__dispatcherIJLm0ELm0EEE10__dispatchB8ne180100IOZNS0_6__ctorINS0_8__traitsIJDnbdNS_12basic_stringIcNS_11char_traitsIcEENS_9allocatorIcEEEENS_6vectorI9JsonValueNSB_ISF_EEEENS_3mapISD_SF_NS_4lessISD_EENSB_INS_4pairIKSD_SF_EEEEEEEEEE19__generic_constructB8ne180100IRKNS0_18__copy_constructorISQ_LNS0_6_TraitE1EEEEEvRSR_OT_EUlRSZ_OT0_E_JRNS0_6__baseILSU_1EJDnbdSD_SH_SP_EEERKS17_EEEDcSZ_DpT0_, symObjAddr: 0x63DC, symBinAddr: 0x1000069C4, symSize: 0x50 }
  - { offset: 0x174C1, size: 0x8, addend: 0x0, symName: __ZNSt3__116__variant_detail12__visitation6__base12__dispatcherIJLm1ELm1EEE10__dispatchB8ne180100IOZNS0_6__ctorINS0_8__traitsIJDnbdNS_12basic_stringIcNS_11char_traitsIcEENS_9allocatorIcEEEENS_6vectorI9JsonValueNSB_ISF_EEEENS_3mapISD_SF_NS_4lessISD_EENSB_INS_4pairIKSD_SF_EEEEEEEEEE19__generic_constructB8ne180100IRKNS0_18__copy_constructorISQ_LNS0_6_TraitE1EEEEEvRSR_OT_EUlRSZ_OT0_E_JRNS0_6__baseILSU_1EJDnbdSD_SH_SP_EEERKS17_EEEDcSZ_DpT0_, symObjAddr: 0x642C, symBinAddr: 0x100006A14, symSize: 0x50 }
  - { offset: 0x1751C, size: 0x8, addend: 0x0, symName: __ZNSt3__116__variant_detail12__visitation6__base12__dispatcherIJLm2ELm2EEE10__dispatchB8ne180100IOZNS0_6__ctorINS0_8__traitsIJDnbdNS_12basic_stringIcNS_11char_traitsIcEENS_9allocatorIcEEEENS_6vectorI9JsonValueNSB_ISF_EEEENS_3mapISD_SF_NS_4lessISD_EENSB_INS_4pairIKSD_SF_EEEEEEEEEE19__generic_constructB8ne180100IRKNS0_18__copy_constructorISQ_LNS0_6_TraitE1EEEEEvRSR_OT_EUlRSZ_OT0_E_JRNS0_6__baseILSU_1EJDnbdSD_SH_SP_EEERKS17_EEEDcSZ_DpT0_, symObjAddr: 0x647C, symBinAddr: 0x100006A64, symSize: 0x50 }
  - { offset: 0x17577, size: 0x8, addend: 0x0, symName: __ZNSt3__116__variant_detail12__visitation6__base12__dispatcherIJLm3ELm3EEE10__dispatchB8ne180100IOZNS0_6__ctorINS0_8__traitsIJDnbdNS_12basic_stringIcNS_11char_traitsIcEENS_9allocatorIcEEEENS_6vectorI9JsonValueNSB_ISF_EEEENS_3mapISD_SF_NS_4lessISD_EENSB_INS_4pairIKSD_SF_EEEEEEEEEE19__generic_constructB8ne180100IRKNS0_18__copy_constructorISQ_LNS0_6_TraitE1EEEEEvRSR_OT_EUlRSZ_OT0_E_JRNS0_6__baseILSU_1EJDnbdSD_SH_SP_EEERKS17_EEEDcSZ_DpT0_, symObjAddr: 0x64CC, symBinAddr: 0x100006AB4, symSize: 0x50 }
  - { offset: 0x175D2, size: 0x8, addend: 0x0, symName: __ZNSt3__116__variant_detail12__visitation6__base12__dispatcherIJLm4ELm4EEE10__dispatchB8ne180100IOZNS0_6__ctorINS0_8__traitsIJDnbdNS_12basic_stringIcNS_11char_traitsIcEENS_9allocatorIcEEEENS_6vectorI9JsonValueNSB_ISF_EEEENS_3mapISD_SF_NS_4lessISD_EENSB_INS_4pairIKSD_SF_EEEEEEEEEE19__generic_constructB8ne180100IRKNS0_18__copy_constructorISQ_LNS0_6_TraitE1EEEEEvRSR_OT_EUlRSZ_OT0_E_JRNS0_6__baseILSU_1EJDnbdSD_SH_SP_EEERKS17_EEEDcSZ_DpT0_, symObjAddr: 0x651C, symBinAddr: 0x100006B04, symSize: 0x50 }
  - { offset: 0x1762D, size: 0x8, addend: 0x0, symName: __ZNSt3__116__variant_detail12__visitation6__base12__dispatcherIJLm5ELm5EEE10__dispatchB8ne180100IOZNS0_6__ctorINS0_8__traitsIJDnbdNS_12basic_stringIcNS_11char_traitsIcEENS_9allocatorIcEEEENS_6vectorI9JsonValueNSB_ISF_EEEENS_3mapISD_SF_NS_4lessISD_EENSB_INS_4pairIKSD_SF_EEEEEEEEEE19__generic_constructB8ne180100IRKNS0_18__copy_constructorISQ_LNS0_6_TraitE1EEEEEvRSR_OT_EUlRSZ_OT0_E_JRNS0_6__baseILSU_1EJDnbdSD_SH_SP_EEERKS17_EEEDcSZ_DpT0_, symObjAddr: 0x656C, symBinAddr: 0x100006B54, symSize: 0x50 }
  - { offset: 0x176C4, size: 0x8, addend: 0x0, symName: __ZNKSt3__18__farrayIPFvOZNS_16__variant_detail6__ctorINS1_8__traitsIJDnbdNS_12basic_stringIcNS_11char_traitsIcEENS_9allocatorIcEEEENS_6vectorI9JsonValueNS7_ISB_EEEENS_3mapIS9_SB_NS_4lessIS9_EENS7_INS_4pairIKS9_SB_EEEEEEEEEE19__generic_constructB8ne180100IRKNS1_18__copy_constructorISM_LNS1_6_TraitE1EEEEEvRSN_OT_EUlRSV_OT0_E_RNS1_6__baseILSQ_1EJDnbdS9_SD_SL_EEERKS13_ELm6EEixB8ne180100Em, symObjAddr: 0x65BC, symBinAddr: 0x100006BA4, symSize: 0x20 }
  - { offset: 0x17704, size: 0x8, addend: 0x0, symName: __ZZNSt3__116__variant_detail6__ctorINS0_8__traitsIJDnbdNS_12basic_stringIcNS_11char_traitsIcEENS_9allocatorIcEEEENS_6vectorI9JsonValueNS6_ISA_EEEENS_3mapIS8_SA_NS_4lessIS8_EENS6_INS_4pairIKS8_SA_EEEEEEEEEE19__generic_constructB8ne180100IRKNS0_18__copy_constructorISL_LNS0_6_TraitE1EEEEEvRSM_OT_ENKUlRSU_OT0_E_clINS0_5__altILm0EDnEERKS12_EEDaSW_SY_, symObjAddr: 0x6610, symBinAddr: 0x100006BF8, symSize: 0x30 }
  - { offset: 0x1775E, size: 0x8, addend: 0x0, symName: __ZZNSt3__116__variant_detail6__ctorINS0_8__traitsIJDnbdNS_12basic_stringIcNS_11char_traitsIcEENS_9allocatorIcEEEENS_6vectorI9JsonValueNS6_ISA_EEEENS_3mapIS8_SA_NS_4lessIS8_EENS6_INS_4pairIKS8_SA_EEEEEEEEEE19__generic_constructB8ne180100IRKNS0_18__copy_constructorISL_LNS0_6_TraitE1EEEEEvRSM_OT_ENKUlRSU_OT0_E_clINS0_5__altILm1EbEERKS12_EEDaSW_SY_, symObjAddr: 0x6674, symBinAddr: 0x100006C5C, symSize: 0x30 }
  - { offset: 0x177B8, size: 0x8, addend: 0x0, symName: __ZZNSt3__116__variant_detail6__ctorINS0_8__traitsIJDnbdNS_12basic_stringIcNS_11char_traitsIcEENS_9allocatorIcEEEENS_6vectorI9JsonValueNS6_ISA_EEEENS_3mapIS8_SA_NS_4lessIS8_EENS6_INS_4pairIKS8_SA_EEEEEEEEEE19__generic_constructB8ne180100IRKNS0_18__copy_constructorISL_LNS0_6_TraitE1EEEEEvRSM_OT_ENKUlRSU_OT0_E_clINS0_5__altILm2EdEERKS12_EEDaSW_SY_, symObjAddr: 0x66D8, symBinAddr: 0x100006CC0, symSize: 0x30 }
  - { offset: 0x17812, size: 0x8, addend: 0x0, symName: __ZZNSt3__116__variant_detail6__ctorINS0_8__traitsIJDnbdNS_12basic_stringIcNS_11char_traitsIcEENS_9allocatorIcEEEENS_6vectorI9JsonValueNS6_ISA_EEEENS_3mapIS8_SA_NS_4lessIS8_EENS6_INS_4pairIKS8_SA_EEEEEEEEEE19__generic_constructB8ne180100IRKNS0_18__copy_constructorISL_LNS0_6_TraitE1EEEEEvRSM_OT_ENKUlRSU_OT0_E_clINS0_5__altILm3ES8_EERKS12_EEDaSW_SY_, symObjAddr: 0x673C, symBinAddr: 0x100006D24, symSize: 0x30 }
  - { offset: 0x1786C, size: 0x8, addend: 0x0, symName: __ZNSt3__116__variant_detail6__ctorINS0_8__traitsIJDnbdNS_12basic_stringIcNS_11char_traitsIcEENS_9allocatorIcEEEENS_6vectorI9JsonValueNS6_ISA_EEEENS_3mapIS8_SA_NS_4lessIS8_EENS6_INS_4pairIKS8_SA_EEEEEEEEEE15__construct_altB8ne180100ILm3ES8_JRSH_EEERT0_RNS0_5__altIXT_ESP_EEDpOT1_, symObjAddr: 0x676C, symBinAddr: 0x100006D54, symSize: 0x30 }
  - { offset: 0x178BD, size: 0x8, addend: 0x0, symName: __ZNSt3__116__variant_detail5__altILm3ENS_12basic_stringIcNS_11char_traitsIcEENS_9allocatorIcEEEEEC1B8ne180100IJRKS7_EEENS_10in_place_tEDpOT_, symObjAddr: 0x679C, symBinAddr: 0x100006D84, symSize: 0x34 }
  - { offset: 0x1790D, size: 0x8, addend: 0x0, symName: __ZNSt3__116__variant_detail5__altILm3ENS_12basic_stringIcNS_11char_traitsIcEENS_9allocatorIcEEEEEC2B8ne180100IJRKS7_EEENS_10in_place_tEDpOT_, symObjAddr: 0x67D0, symBinAddr: 0x100006DB8, symSize: 0x34 }
  - { offset: 0x1795D, size: 0x8, addend: 0x0, symName: __ZZNSt3__116__variant_detail6__ctorINS0_8__traitsIJDnbdNS_12basic_stringIcNS_11char_traitsIcEENS_9allocatorIcEEEENS_6vectorI9JsonValueNS6_ISA_EEEENS_3mapIS8_SA_NS_4lessIS8_EENS6_INS_4pairIKS8_SA_EEEEEEEEEE19__generic_constructB8ne180100IRKNS0_18__copy_constructorISL_LNS0_6_TraitE1EEEEEvRSM_OT_ENKUlRSU_OT0_E_clINS0_5__altILm4ESC_EERKS12_EEDaSW_SY_, symObjAddr: 0x6838, symBinAddr: 0x100006E20, symSize: 0x30 }
  - { offset: 0x179B7, size: 0x8, addend: 0x0, symName: __ZNSt3__116__variant_detail6__ctorINS0_8__traitsIJDnbdNS_12basic_stringIcNS_11char_traitsIcEENS_9allocatorIcEEEENS_6vectorI9JsonValueNS6_ISA_EEEENS_3mapIS8_SA_NS_4lessIS8_EENS6_INS_4pairIKS8_SA_EEEEEEEEEE15__construct_altB8ne180100ILm4ESC_JRKSC_EEERT0_RNS0_5__altIXT_ESQ_EEDpOT1_, symObjAddr: 0x6868, symBinAddr: 0x100006E50, symSize: 0x30 }
  - { offset: 0x17A08, size: 0x8, addend: 0x0, symName: __ZNSt3__116__variant_detail5__altILm4ENS_6vectorI9JsonValueNS_9allocatorIS3_EEEEEC1B8ne180100IJRKS6_EEENS_10in_place_tEDpOT_, symObjAddr: 0x6898, symBinAddr: 0x100006E80, symSize: 0x34 }
  - { offset: 0x17A58, size: 0x8, addend: 0x0, symName: __ZNSt3__116__variant_detail5__altILm4ENS_6vectorI9JsonValueNS_9allocatorIS3_EEEEEC2B8ne180100IJRKS6_EEENS_10in_place_tEDpOT_, symObjAddr: 0x68CC, symBinAddr: 0x100006EB4, symSize: 0x34 }
  - { offset: 0x17AA8, size: 0x8, addend: 0x0, symName: __ZNSt3__16vectorI9JsonValueNS_9allocatorIS1_EEEC1ERKS4_, symObjAddr: 0x6900, symBinAddr: 0x100006EE8, symSize: 0x34 }
  - { offset: 0x17AE3, size: 0x8, addend: 0x0, symName: __ZNSt3__16vectorI9JsonValueNS_9allocatorIS1_EEEC2ERKS4_, symObjAddr: 0x6934, symBinAddr: 0x100006F1C, symSize: 0x94 }
  - { offset: 0x17B29, size: 0x8, addend: 0x0, symName: __ZNSt3__116allocator_traitsINS_9allocatorI9JsonValueEEE37select_on_container_copy_constructionB8ne180100IS3_vvEES3_RKS3_, symObjAddr: 0x69C8, symBinAddr: 0x100006FB0, symSize: 0x10 }
  - { offset: 0x17B58, size: 0x8, addend: 0x0, symName: __ZNKSt3__16vectorI9JsonValueNS_9allocatorIS1_EEE7__allocB8ne180100Ev, symObjAddr: 0x69D8, symBinAddr: 0x100006FC0, symSize: 0x28 }
  - { offset: 0x17B8A, size: 0x8, addend: 0x0, symName: __ZNSt3__117__compressed_pairIP9JsonValueNS_9allocatorIS1_EEEC1B8ne180100IDnS4_EEOT_OT0_, symObjAddr: 0x6A00, symBinAddr: 0x100006FE8, symSize: 0x3C }
  - { offset: 0x17BE2, size: 0x8, addend: 0x0, symName: __ZNSt3__16vectorI9JsonValueNS_9allocatorIS1_EEE16__init_with_sizeB8ne180100IPS1_S6_EEvT_T0_m, symObjAddr: 0x6A3C, symBinAddr: 0x100007024, symSize: 0xB8 }
  - { offset: 0x17C56, size: 0x8, addend: 0x0, symName: __ZNKSt3__117__compressed_pairIP9JsonValueNS_9allocatorIS1_EEE6secondB8ne180100Ev, symObjAddr: 0x6AF4, symBinAddr: 0x1000070DC, symSize: 0x24 }
  - { offset: 0x17C7C, size: 0x8, addend: 0x0, symName: __ZNKSt3__122__compressed_pair_elemINS_9allocatorI9JsonValueEELi1ELb1EE5__getB8ne180100Ev, symObjAddr: 0x6B18, symBinAddr: 0x100007100, symSize: 0x14 }
  - { offset: 0x17CA2, size: 0x8, addend: 0x0, symName: __ZNSt3__117__compressed_pairIP9JsonValueNS_9allocatorIS1_EEEC2B8ne180100IDnS4_EEOT_OT0_, symObjAddr: 0x6B2C, symBinAddr: 0x100007114, symSize: 0x44 }
  - { offset: 0x17CFA, size: 0x8, addend: 0x0, symName: __ZNSt3__122__compressed_pair_elemIP9JsonValueLi0ELb0EEC2B8ne180100IDnvEEOT_, symObjAddr: 0x6B70, symBinAddr: 0x100007158, symSize: 0x1C }
  - { offset: 0x17D3C, size: 0x8, addend: 0x0, symName: __ZNSt3__122__compressed_pair_elemINS_9allocatorI9JsonValueEELi1ELb1EEC2B8ne180100IS3_vEEOT_, symObjAddr: 0x6B8C, symBinAddr: 0x100007174, symSize: 0x18 }
  - { offset: 0x17D7E, size: 0x8, addend: 0x0, symName: __ZNSt3__128__exception_guard_exceptionsINS_6vectorI9JsonValueNS_9allocatorIS2_EEE16__destroy_vectorEE10__completeB8ne180100Ev, symObjAddr: 0x6BE4, symBinAddr: 0x1000071CC, symSize: 0x1C }
  - { offset: 0x17DA4, size: 0x8, addend: 0x0, symName: __ZNSt3__128__exception_guard_exceptionsINS_6vectorI9JsonValueNS_9allocatorIS2_EEE16__destroy_vectorEED1B8ne180100Ev, symObjAddr: 0x6C00, symBinAddr: 0x1000071E8, symSize: 0x2C }
  - { offset: 0x17DCE, size: 0x8, addend: 0x0, symName: __ZNSt3__128__exception_guard_exceptionsINS_6vectorI9JsonValueNS_9allocatorIS2_EEE16__destroy_vectorEEC1B8ne180100ES6_, symObjAddr: 0x6C2C, symBinAddr: 0x100007214, symSize: 0x34 }
  - { offset: 0x17E06, size: 0x8, addend: 0x0, symName: __ZNSt3__128__exception_guard_exceptionsINS_6vectorI9JsonValueNS_9allocatorIS2_EEE16__destroy_vectorEEC2B8ne180100ES6_, symObjAddr: 0x6C60, symBinAddr: 0x100007248, symSize: 0x24 }
  - { offset: 0x17E3E, size: 0x8, addend: 0x0, symName: __ZNSt3__128__exception_guard_exceptionsINS_6vectorI9JsonValueNS_9allocatorIS2_EEE16__destroy_vectorEED2B8ne180100Ev, symObjAddr: 0x6C84, symBinAddr: 0x10000726C, symSize: 0x48 }
  - { offset: 0x17E73, size: 0x8, addend: 0x0, symName: __ZNSt3__116__variant_detail8__access6__base9__get_altB8ne180100ILm5ERKNS0_6__baseILNS0_6_TraitE1EJDnbdNS_12basic_stringIcNS_11char_traitsIcEENS_9allocatorIcEEEENS_6vectorI9JsonValueNS9_ISD_EEEENS_3mapISB_SD_NS_4lessISB_EENS9_INS_4pairIKSB_SD_EEEEEEEEEEEODaOT0_, symObjAddr: 0x6D00, symBinAddr: 0x1000072E8, symSize: 0x24 }
  - { offset: 0x17EAA, size: 0x8, addend: 0x0, symName: __ZZNSt3__116__variant_detail6__ctorINS0_8__traitsIJDnbdNS_12basic_stringIcNS_11char_traitsIcEENS_9allocatorIcEEEENS_6vectorI9JsonValueNS6_ISA_EEEENS_3mapIS8_SA_NS_4lessIS8_EENS6_INS_4pairIKS8_SA_EEEEEEEEEE19__generic_constructB8ne180100IRKNS0_18__copy_constructorISL_LNS0_6_TraitE1EEEEEvRSM_OT_ENKUlRSU_OT0_E_clINS0_5__altILm5ESK_EERKS12_EEDaSW_SY_, symObjAddr: 0x6D24, symBinAddr: 0x10000730C, symSize: 0x30 }
  - { offset: 0x17F04, size: 0x8, addend: 0x0, symName: __ZNSt3__116__variant_detail6__ctorINS0_8__traitsIJDnbdNS_12basic_stringIcNS_11char_traitsIcEENS_9allocatorIcEEEENS_6vectorI9JsonValueNS6_ISA_EEEENS_3mapIS8_SA_NS_4lessIS8_EENS6_INS_4pairIKS8_SA_EEEEEEEEEE15__construct_altB8ne180100ILm5ESK_JRKSK_EEERT0_RNS0_5__altIXT_ESQ_EEDpOT1_, symObjAddr: 0x6D54, symBinAddr: 0x10000733C, symSize: 0x30 }
  - { offset: 0x17F55, size: 0x8, addend: 0x0, symName: __ZNSt3__116__variant_detail5__altILm5ENS_3mapINS_12basic_stringIcNS_11char_traitsIcEENS_9allocatorIcEEEE9JsonValueNS_4lessIS8_EENS6_INS_4pairIKS8_S9_EEEEEEEC1B8ne180100IJRKSG_EEENS_10in_place_tEDpOT_, symObjAddr: 0x6D84, symBinAddr: 0x10000736C, symSize: 0x34 }
  - { offset: 0x17FA5, size: 0x8, addend: 0x0, symName: __ZNSt3__116__variant_detail5__altILm5ENS_3mapINS_12basic_stringIcNS_11char_traitsIcEENS_9allocatorIcEEEE9JsonValueNS_4lessIS8_EENS6_INS_4pairIKS8_S9_EEEEEEEC2B8ne180100IJRKSG_EEENS_10in_place_tEDpOT_, symObjAddr: 0x6DB8, symBinAddr: 0x1000073A0, symSize: 0x34 }
  - { offset: 0x17FF5, size: 0x8, addend: 0x0, symName: __ZNSt3__13mapINS_12basic_stringIcNS_11char_traitsIcEENS_9allocatorIcEEEE9JsonValueNS_4lessIS6_EENS4_INS_4pairIKS6_S7_EEEEEC1B8ne180100ERKSE_, symObjAddr: 0x6DEC, symBinAddr: 0x1000073D4, symSize: 0x34 }
  - { offset: 0x1802E, size: 0x8, addend: 0x0, symName: __ZNSt3__13mapINS_12basic_stringIcNS_11char_traitsIcEENS_9allocatorIcEEEE9JsonValueNS_4lessIS6_EENS4_INS_4pairIKS6_S7_EEEEEC2B8ne180100ERKSE_, symObjAddr: 0x6E20, symBinAddr: 0x100007408, symSize: 0x88 }
  - { offset: 0x18067, size: 0x8, addend: 0x0, symName: __ZNSt3__16__treeINS_12__value_typeINS_12basic_stringIcNS_11char_traitsIcEENS_9allocatorIcEEEE9JsonValueEENS_19__map_value_compareIS7_S9_NS_4lessIS7_EELb1EEENS5_IS9_EEEC1ERKSF_, symObjAddr: 0x6EA8, symBinAddr: 0x100007490, symSize: 0x34 }
  - { offset: 0x180A2, size: 0x8, addend: 0x0, symName: __ZNSt3__13mapINS_12basic_stringIcNS_11char_traitsIcEENS_9allocatorIcEEEE9JsonValueNS_4lessIS6_EENS4_INS_4pairIKS6_S7_EEEEE6insertB8ne180100INS_20__map_const_iteratorINS_21__tree_const_iteratorINS_12__value_typeIS6_S7_EEPNS_11__tree_nodeISJ_PvEElEEEEEEvT_SQ_, symObjAddr: 0x6EDC, symBinAddr: 0x1000074C4, symSize: 0x8C }
  - { offset: 0x1810C, size: 0x8, addend: 0x0, symName: __ZNKSt3__13mapINS_12basic_stringIcNS_11char_traitsIcEENS_9allocatorIcEEEE9JsonValueNS_4lessIS6_EENS4_INS_4pairIKS6_S7_EEEEE5beginB8ne180100Ev, symObjAddr: 0x6F68, symBinAddr: 0x100007550, symSize: 0x38 }
  - { offset: 0x18132, size: 0x8, addend: 0x0, symName: __ZNKSt3__13mapINS_12basic_stringIcNS_11char_traitsIcEENS_9allocatorIcEEEE9JsonValueNS_4lessIS6_EENS4_INS_4pairIKS6_S7_EEEEE3endB8ne180100Ev, symObjAddr: 0x6FA0, symBinAddr: 0x100007588, symSize: 0x38 }
  - { offset: 0x18158, size: 0x8, addend: 0x0, symName: __ZNSt3__16__treeINS_12__value_typeINS_12basic_stringIcNS_11char_traitsIcEENS_9allocatorIcEEEE9JsonValueEENS_19__map_value_compareIS7_S9_NS_4lessIS7_EELb1EEENS5_IS9_EEED1Ev, symObjAddr: 0x6FD8, symBinAddr: 0x1000075C0, symSize: 0x2C }
  - { offset: 0x18184, size: 0x8, addend: 0x0, symName: __ZNSt3__16__treeINS_12__value_typeINS_12basic_stringIcNS_11char_traitsIcEENS_9allocatorIcEEEE9JsonValueEENS_19__map_value_compareIS7_S9_NS_4lessIS7_EELb1EEENS5_IS9_EEEC2ERKSF_, symObjAddr: 0x7004, symBinAddr: 0x1000075EC, symSize: 0x9C }
  - { offset: 0x181BF, size: 0x8, addend: 0x0, symName: __ZNSt3__116allocator_traitsINS_9allocatorINS_11__tree_nodeINS_12__value_typeINS_12basic_stringIcNS_11char_traitsIcEENS1_IcEEEE9JsonValueEEPvEEEEE37select_on_container_copy_constructionB8ne180100ISD_vvEESD_RKSD_, symObjAddr: 0x70A0, symBinAddr: 0x100007688, symSize: 0x10 }
  - { offset: 0x181EE, size: 0x8, addend: 0x0, symName: __ZNKSt3__16__treeINS_12__value_typeINS_12basic_stringIcNS_11char_traitsIcEENS_9allocatorIcEEEE9JsonValueEENS_19__map_value_compareIS7_S9_NS_4lessIS7_EELb1EEENS5_IS9_EEE12__node_allocB8ne180100Ev, symObjAddr: 0x70B0, symBinAddr: 0x100007698, symSize: 0x28 }
  - { offset: 0x18220, size: 0x8, addend: 0x0, symName: __ZNSt3__117__compressed_pairINS_15__tree_end_nodeIPNS_16__tree_node_baseIPvEEEENS_9allocatorINS_11__tree_nodeINS_12__value_typeINS_12basic_stringIcNS_11char_traitsIcEENS7_IcEEEE9JsonValueEES3_EEEEEC1B8ne180100INS_18__default_init_tagESI_EEOT_OT0_, symObjAddr: 0x70D8, symBinAddr: 0x1000076C0, symSize: 0x3C }
  - { offset: 0x18278, size: 0x8, addend: 0x0, symName: __ZNKSt3__16__treeINS_12__value_typeINS_12basic_stringIcNS_11char_traitsIcEENS_9allocatorIcEEEE9JsonValueEENS_19__map_value_compareIS7_S9_NS_4lessIS7_EELb1EEENS5_IS9_EEE10value_compB8ne180100Ev, symObjAddr: 0x7114, symBinAddr: 0x1000076FC, symSize: 0x28 }
  - { offset: 0x1829E, size: 0x8, addend: 0x0, symName: __ZNKSt3__117__compressed_pairINS_15__tree_end_nodeIPNS_16__tree_node_baseIPvEEEENS_9allocatorINS_11__tree_nodeINS_12__value_typeINS_12basic_stringIcNS_11char_traitsIcEENS7_IcEEEE9JsonValueEES3_EEEEE6secondB8ne180100Ev, symObjAddr: 0x713C, symBinAddr: 0x100007724, symSize: 0x24 }
  - { offset: 0x182C4, size: 0x8, addend: 0x0, symName: __ZNKSt3__122__compressed_pair_elemINS_9allocatorINS_11__tree_nodeINS_12__value_typeINS_12basic_stringIcNS_11char_traitsIcEENS1_IcEEEE9JsonValueEEPvEEEELi1ELb1EE5__getB8ne180100Ev, symObjAddr: 0x7160, symBinAddr: 0x100007748, symSize: 0x14 }
  - { offset: 0x182EA, size: 0x8, addend: 0x0, symName: __ZNSt3__117__compressed_pairINS_15__tree_end_nodeIPNS_16__tree_node_baseIPvEEEENS_9allocatorINS_11__tree_nodeINS_12__value_typeINS_12basic_stringIcNS_11char_traitsIcEENS7_IcEEEE9JsonValueEES3_EEEEEC2B8ne180100INS_18__default_init_tagESI_EEOT_OT0_, symObjAddr: 0x7174, symBinAddr: 0x10000775C, symSize: 0x40 }
  - { offset: 0x18342, size: 0x8, addend: 0x0, symName: __ZNSt3__122__compressed_pair_elemINS_15__tree_end_nodeIPNS_16__tree_node_baseIPvEEEELi0ELb0EEC2B8ne180100ENS_18__default_init_tagE, symObjAddr: 0x71B4, symBinAddr: 0x10000779C, symSize: 0x2C }
  - { offset: 0x18376, size: 0x8, addend: 0x0, symName: __ZNSt3__122__compressed_pair_elemINS_9allocatorINS_11__tree_nodeINS_12__value_typeINS_12basic_stringIcNS_11char_traitsIcEENS1_IcEEEE9JsonValueEEPvEEEELi1ELb1EEC2B8ne180100ISD_vEEOT_, symObjAddr: 0x71E0, symBinAddr: 0x1000077C8, symSize: 0x18 }
  - { offset: 0x183B8, size: 0x8, addend: 0x0, symName: __ZNKSt3__117__compressed_pairImNS_19__map_value_compareINS_12basic_stringIcNS_11char_traitsIcEENS_9allocatorIcEEEENS_12__value_typeIS7_9JsonValueEENS_4lessIS7_EELb1EEEE6secondB8ne180100Ev, symObjAddr: 0x71F8, symBinAddr: 0x1000077E0, symSize: 0x24 }
  - { offset: 0x183DE, size: 0x8, addend: 0x0, symName: __ZNKSt3__122__compressed_pair_elemINS_19__map_value_compareINS_12basic_stringIcNS_11char_traitsIcEENS_9allocatorIcEEEENS_12__value_typeIS7_9JsonValueEENS_4lessIS7_EELb1EEELi1ELb1EE5__getB8ne180100Ev, symObjAddr: 0x721C, symBinAddr: 0x100007804, symSize: 0x14 }
  - { offset: 0x18404, size: 0x8, addend: 0x0, symName: __ZNKSt3__13mapINS_12basic_stringIcNS_11char_traitsIcEENS_9allocatorIcEEEE9JsonValueNS_4lessIS6_EENS4_INS_4pairIKS6_S7_EEEEE4cendB8ne180100Ev, symObjAddr: 0x7230, symBinAddr: 0x100007818, symSize: 0x2C }
  - { offset: 0x1842A, size: 0x8, addend: 0x0, symName: __ZNSt3__13mapINS_12basic_stringIcNS_11char_traitsIcEENS_9allocatorIcEEEE9JsonValueNS_4lessIS6_EENS4_INS_4pairIKS6_S7_EEEEE6insertB8ne180100ENS_20__map_const_iteratorINS_21__tree_const_iteratorINS_12__value_typeIS6_S7_EEPNS_11__tree_nodeISI_PvEElEEEERKSC_, symObjAddr: 0x728C, symBinAddr: 0x100007874, symSize: 0x50 }
  - { offset: 0x1846E, size: 0x8, addend: 0x0, symName: __ZNSt3__120__map_const_iteratorINS_21__tree_const_iteratorINS_12__value_typeINS_12basic_stringIcNS_11char_traitsIcEENS_9allocatorIcEEEE9JsonValueEEPNS_11__tree_nodeISA_PvEElEEEC1B8ne180100ESF_, symObjAddr: 0x72DC, symBinAddr: 0x1000078C4, symSize: 0x34 }
  - { offset: 0x184A7, size: 0x8, addend: 0x0, symName: __ZNKSt3__120__map_const_iteratorINS_21__tree_const_iteratorINS_12__value_typeINS_12basic_stringIcNS_11char_traitsIcEENS_9allocatorIcEEEE9JsonValueEEPNS_11__tree_nodeISA_PvEElEEEdeB8ne180100Ev, symObjAddr: 0x7310, symBinAddr: 0x1000078F8, symSize: 0x28 }
  - { offset: 0x184CD, size: 0x8, addend: 0x0, symName: __ZNSt3__120__map_const_iteratorINS_21__tree_const_iteratorINS_12__value_typeINS_12basic_stringIcNS_11char_traitsIcEENS_9allocatorIcEEEE9JsonValueEEPNS_11__tree_nodeISA_PvEElEEEppB8ne180100Ev, symObjAddr: 0x7338, symBinAddr: 0x100007920, symSize: 0x2C }
  - { offset: 0x184F3, size: 0x8, addend: 0x0, symName: __ZNSt3__16__treeINS_12__value_typeINS_12basic_stringIcNS_11char_traitsIcEENS_9allocatorIcEEEE9JsonValueEENS_19__map_value_compareIS7_S9_NS_4lessIS7_EELb1EEENS5_IS9_EEE15__insert_uniqueB8ne180100ENS_21__tree_const_iteratorIS9_PNS_11__tree_nodeIS9_PvEElEERKNS_4pairIKS7_S8_EE, symObjAddr: 0x73C8, symBinAddr: 0x1000079B0, symSize: 0x64 }
  - { offset: 0x18537, size: 0x8, addend: 0x0, symName: __ZNSt3__114__map_iteratorINS_15__tree_iteratorINS_12__value_typeINS_12basic_stringIcNS_11char_traitsIcEENS_9allocatorIcEEEE9JsonValueEEPNS_11__tree_nodeISA_PvEElEEEC1B8ne180100ESF_, symObjAddr: 0x742C, symBinAddr: 0x100007A14, symSize: 0x34 }
  - { offset: 0x18570, size: 0x8, addend: 0x0, symName: __ZNSt3__16__treeINS_12__value_typeINS_12basic_stringIcNS_11char_traitsIcEENS_9allocatorIcEEEE9JsonValueEENS_19__map_value_compareIS7_S9_NS_4lessIS7_EELb1EEENS5_IS9_EEE30__emplace_hint_unique_key_argsIS7_JRKNS_4pairIKS7_S8_EEEEENSH_INS_15__tree_iteratorIS9_PNS_11__tree_nodeIS9_PvEElEEbEENS_21__tree_const_iteratorIS9_SQ_lEERKT_DpOT0_, symObjAddr: 0x7460, symBinAddr: 0x100007A48, symSize: 0x104 }
  - { offset: 0x1863C, size: 0x8, addend: 0x0, symName: __ZNSt3__122__tree_key_value_typesINS_12__value_typeINS_12basic_stringIcNS_11char_traitsIcEENS_9allocatorIcEEEE9JsonValueEEE9__get_keyB8ne180100IKNS_4pairIKS7_S8_EELi0EEERSD_RT_, symObjAddr: 0x7564, symBinAddr: 0x100007B4C, symSize: 0x14 }
  - { offset: 0x1866F, size: 0x8, addend: 0x0, symName: __ZNSt3__16__treeINS_12__value_typeINS_12basic_stringIcNS_11char_traitsIcEENS_9allocatorIcEEEE9JsonValueEENS_19__map_value_compareIS7_S9_NS_4lessIS7_EELb1EEENS5_IS9_EEE12__find_equalIS7_EERPNS_16__tree_node_baseIPvEENS_21__tree_const_iteratorIS9_PNS_11__tree_nodeIS9_SI_EElEERPNS_15__tree_end_nodeISK_EESL_RKT_, symObjAddr: 0x7578, symBinAddr: 0x100007B60, symSize: 0x304 }
  - { offset: 0x18718, size: 0x8, addend: 0x0, symName: __ZNSt3__16__treeINS_12__value_typeINS_12basic_stringIcNS_11char_traitsIcEENS_9allocatorIcEEEE9JsonValueEENS_19__map_value_compareIS7_S9_NS_4lessIS7_EELb1EEENS5_IS9_EEE16__construct_nodeIJRKNS_4pairIKS7_S8_EEEEENS_10unique_ptrINS_11__tree_nodeIS9_PvEENS_22__tree_node_destructorINS5_ISP_EEEEEEDpOT_, symObjAddr: 0x787C, symBinAddr: 0x100007E64, symSize: 0x110 }
  - { offset: 0x18779, size: 0x8, addend: 0x0, symName: __ZNSt3__16__treeINS_12__value_typeINS_12basic_stringIcNS_11char_traitsIcEENS_9allocatorIcEEEE9JsonValueEENS_19__map_value_compareIS7_S9_NS_4lessIS7_EELb1EEENS5_IS9_EEE3endB8ne180100Ev, symObjAddr: 0x798C, symBinAddr: 0x100007F74, symSize: 0x34 }
  - { offset: 0x1879F, size: 0x8, addend: 0x0, symName: __ZNSt3__121__tree_const_iteratorINS_12__value_typeINS_12basic_stringIcNS_11char_traitsIcEENS_9allocatorIcEEEE9JsonValueEEPNS_11__tree_nodeIS9_PvEElEC1B8ne180100ENS_15__tree_iteratorIS9_SD_lEE, symObjAddr: 0x79C0, symBinAddr: 0x100007FA8, symSize: 0x34 }
  - { offset: 0x187D8, size: 0x8, addend: 0x0, symName: __ZNKSt3__121__tree_const_iteratorINS_12__value_typeINS_12basic_stringIcNS_11char_traitsIcEENS_9allocatorIcEEEE9JsonValueEEPNS_11__tree_nodeIS9_PvEElEdeB8ne180100Ev, symObjAddr: 0x79F4, symBinAddr: 0x100007FDC, symSize: 0x28 }
  - { offset: 0x187FE, size: 0x8, addend: 0x0, symName: __ZNSt3__16__treeINS_12__value_typeINS_12basic_stringIcNS_11char_traitsIcEENS_9allocatorIcEEEE9JsonValueEENS_19__map_value_compareIS7_S9_NS_4lessIS7_EELb1EEENS5_IS9_EEE5beginB8ne180100Ev, symObjAddr: 0x7A1C, symBinAddr: 0x100008004, symSize: 0x34 }
  - { offset: 0x18824, size: 0x8, addend: 0x0, symName: __ZNSt3__121__tree_const_iteratorINS_12__value_typeINS_12basic_stringIcNS_11char_traitsIcEENS_9allocatorIcEEEE9JsonValueEEPNS_11__tree_nodeIS9_PvEElEmmB8ne180100Ev, symObjAddr: 0x7A50, symBinAddr: 0x100008038, symSize: 0x38 }
  - { offset: 0x1884A, size: 0x8, addend: 0x0, symName: __ZNKSt3__121__tree_const_iteratorINS_12__value_typeINS_12basic_stringIcNS_11char_traitsIcEENS_9allocatorIcEEEE9JsonValueEEPNS_11__tree_nodeIS9_PvEElE8__get_npB8ne180100Ev, symObjAddr: 0x7AC4, symBinAddr: 0x1000080AC, symSize: 0x18 }
  - { offset: 0x18870, size: 0x8, addend: 0x0, symName: __ZNSt3__115__tree_iteratorINS_12__value_typeINS_12basic_stringIcNS_11char_traitsIcEENS_9allocatorIcEEEE9JsonValueEEPNS_11__tree_nodeIS9_PvEElEC1B8ne180100EPNS_15__tree_end_nodeIPNS_16__tree_node_baseISB_EEEE, symObjAddr: 0x7ADC, symBinAddr: 0x1000080C4, symSize: 0x34 }
  - { offset: 0x188A9, size: 0x8, addend: 0x0, symName: __ZNSt3__115__tree_iteratorINS_12__value_typeINS_12basic_stringIcNS_11char_traitsIcEENS_9allocatorIcEEEE9JsonValueEEPNS_11__tree_nodeIS9_PvEElEC2B8ne180100EPNS_15__tree_end_nodeIPNS_16__tree_node_baseISB_EEEE, symObjAddr: 0x7B10, symBinAddr: 0x1000080F8, symSize: 0x20 }
  - { offset: 0x188E2, size: 0x8, addend: 0x0, symName: __ZNSt3__121__tree_const_iteratorINS_12__value_typeINS_12basic_stringIcNS_11char_traitsIcEENS_9allocatorIcEEEE9JsonValueEEPNS_11__tree_nodeIS9_PvEElEC2B8ne180100ENS_15__tree_iteratorIS9_SD_lEE, symObjAddr: 0x7B30, symBinAddr: 0x100008118, symSize: 0x20 }
  - { offset: 0x1891B, size: 0x8, addend: 0x0, symName: __ZNSt3__121__tree_const_iteratorINS_12__value_typeINS_12basic_stringIcNS_11char_traitsIcEENS_9allocatorIcEEEE9JsonValueEEPNS_11__tree_nodeIS9_PvEElEppB8ne180100Ev, symObjAddr: 0x7CF4, symBinAddr: 0x1000082DC, symSize: 0x38 }
  - { offset: 0x18941, size: 0x8, addend: 0x0, symName: __ZNSt3__116allocator_traitsINS_9allocatorINS_11__tree_nodeINS_12__value_typeINS_12basic_stringIcNS_11char_traitsIcEENS1_IcEEEE9JsonValueEEPvEEEEE9constructB8ne180100INS_4pairIKS8_S9_EEJRKSI_EvEEvRSD_PT_DpOT0_, symObjAddr: 0x7DEC, symBinAddr: 0x1000083D4, symSize: 0x34 }
  - { offset: 0x18998, size: 0x8, addend: 0x0, symName: __ZNSt3__19allocatorINS_11__tree_nodeINS_12__value_typeINS_12basic_stringIcNS_11char_traitsIcEENS0_IcEEEE9JsonValueEEPvEEE9constructB8ne180100INS_4pairIKS7_S8_EEJRKSG_EEEvPT_DpOT0_, symObjAddr: 0x7E20, symBinAddr: 0x100008408, symSize: 0x30 }
  - { offset: 0x189EE, size: 0x8, addend: 0x0, symName: __ZNSt3__14pairIKNS_12basic_stringIcNS_11char_traitsIcEENS_9allocatorIcEEEE9JsonValueEC1B8ne180100ERKS9_, symObjAddr: 0x7E50, symBinAddr: 0x100008438, symSize: 0x34 }
  - { offset: 0x18A22, size: 0x8, addend: 0x0, symName: __ZNSt3__14pairIKNS_12basic_stringIcNS_11char_traitsIcEENS_9allocatorIcEEEE9JsonValueEC2B8ne180100ERKS9_, symObjAddr: 0x7E84, symBinAddr: 0x10000846C, symSize: 0x70 }
  - { offset: 0x18A56, size: 0x8, addend: 0x0, symName: __ZNSt3__114__map_iteratorINS_15__tree_iteratorINS_12__value_typeINS_12basic_stringIcNS_11char_traitsIcEENS_9allocatorIcEEEE9JsonValueEEPNS_11__tree_nodeISA_PvEElEEEC2B8ne180100ESF_, symObjAddr: 0x7EF4, symBinAddr: 0x1000084DC, symSize: 0x20 }
  - { offset: 0x18A8F, size: 0x8, addend: 0x0, symName: __ZNSt3__120__map_const_iteratorINS_21__tree_const_iteratorINS_12__value_typeINS_12basic_stringIcNS_11char_traitsIcEENS_9allocatorIcEEEE9JsonValueEEPNS_11__tree_nodeISA_PvEElEEEC2B8ne180100ESF_, symObjAddr: 0x7F14, symBinAddr: 0x1000084FC, symSize: 0x20 }
  - { offset: 0x18AC8, size: 0x8, addend: 0x0, symName: __ZNKSt3__121__tree_const_iteratorINS_12__value_typeINS_12basic_stringIcNS_11char_traitsIcEENS_9allocatorIcEEEE9JsonValueEEPNS_11__tree_nodeIS9_PvEElEptB8ne180100Ev, symObjAddr: 0x7F34, symBinAddr: 0x10000851C, symSize: 0x2C }
  - { offset: 0x18AEE, size: 0x8, addend: 0x0, symName: __ZNSt3__114pointer_traitsIPKNS_12__value_typeINS_12basic_stringIcNS_11char_traitsIcEENS_9allocatorIcEEEE9JsonValueEEE10pointer_toB8ne180100ERSA_, symObjAddr: 0x7F60, symBinAddr: 0x100008548, symSize: 0x14 }
  - { offset: 0x18B11, size: 0x8, addend: 0x0, symName: __ZNKSt3__16__treeINS_12__value_typeINS_12basic_stringIcNS_11char_traitsIcEENS_9allocatorIcEEEE9JsonValueEENS_19__map_value_compareIS7_S9_NS_4lessIS7_EELb1EEENS5_IS9_EEE5beginB8ne180100Ev, symObjAddr: 0x7F74, symBinAddr: 0x10000855C, symSize: 0x34 }
  - { offset: 0x18B37, size: 0x8, addend: 0x0, symName: __ZNKSt3__16__treeINS_12__value_typeINS_12basic_stringIcNS_11char_traitsIcEENS_9allocatorIcEEEE9JsonValueEENS_19__map_value_compareIS7_S9_NS_4lessIS7_EELb1EEENS5_IS9_EEE12__begin_nodeB8ne180100Ev, symObjAddr: 0x7FA8, symBinAddr: 0x100008590, symSize: 0x14 }
  - { offset: 0x18B5D, size: 0x8, addend: 0x0, symName: __ZNSt3__121__tree_const_iteratorINS_12__value_typeINS_12basic_stringIcNS_11char_traitsIcEENS_9allocatorIcEEEE9JsonValueEEPNS_11__tree_nodeIS9_PvEElEC1B8ne180100EPNS_15__tree_end_nodeIPNS_16__tree_node_baseISB_EEEE, symObjAddr: 0x7FBC, symBinAddr: 0x1000085A4, symSize: 0x34 }
  - { offset: 0x18B96, size: 0x8, addend: 0x0, symName: __ZNSt3__121__tree_const_iteratorINS_12__value_typeINS_12basic_stringIcNS_11char_traitsIcEENS_9allocatorIcEEEE9JsonValueEEPNS_11__tree_nodeIS9_PvEElEC2B8ne180100EPNS_15__tree_end_nodeIPNS_16__tree_node_baseISB_EEEE, symObjAddr: 0x7FF0, symBinAddr: 0x1000085D8, symSize: 0x20 }
  - { offset: 0x18BCF, size: 0x8, addend: 0x0, symName: __ZNKSt3__16__treeINS_12__value_typeINS_12basic_stringIcNS_11char_traitsIcEENS_9allocatorIcEEEE9JsonValueEENS_19__map_value_compareIS7_S9_NS_4lessIS7_EELb1EEENS5_IS9_EEE3endB8ne180100Ev, symObjAddr: 0x8010, symBinAddr: 0x1000085F8, symSize: 0x34 }
  - { offset: 0x18BF5, size: 0x8, addend: 0x0, symName: __ZNSt3__16__treeINS_12__value_typeINS_12basic_stringIcNS_11char_traitsIcEENS_9allocatorIcEEEE9JsonValueEENS_19__map_value_compareIS7_S9_NS_4lessIS7_EELb1EEENS5_IS9_EEED2Ev, symObjAddr: 0x8044, symBinAddr: 0x10000862C, symSize: 0x38 }
  - { offset: 0x18C21, size: 0x8, addend: 0x0, symName: __ZNSt3__16__treeINS_12__value_typeINS_12basic_stringIcNS_11char_traitsIcEENS_9allocatorIcEEEE9JsonValueEENS_19__map_value_compareIS7_S9_NS_4lessIS7_EELb1EEENS5_IS9_EEE7destroyEPNS_11__tree_nodeIS9_PvEE, symObjAddr: 0x807C, symBinAddr: 0x100008664, symSize: 0xAC }
  - { offset: 0x18C6D, size: 0x8, addend: 0x0, symName: __ZNSt3__116__variant_detail8__access7__union9__get_altB8ne180100IRKNS0_7__unionILNS0_6_TraitE1ELm0EJDnbdNS_12basic_stringIcNS_11char_traitsIcEENS_9allocatorIcEEEENS_6vectorI9JsonValueNS9_ISD_EEEENS_3mapISB_SD_NS_4lessISB_EENS9_INS_4pairIKSB_SD_EEEEEEEEELm5EEEODaOT_NS_16in_place_index_tIXT0_EEE, symObjAddr: 0x8128, symBinAddr: 0x100008710, symSize: 0x24 }
  - { offset: 0x18CB0, size: 0x8, addend: 0x0, symName: __ZNSt3__116__variant_detail8__access7__union9__get_altB8ne180100IRKNS0_7__unionILNS0_6_TraitE1ELm1EJbdNS_12basic_stringIcNS_11char_traitsIcEENS_9allocatorIcEEEENS_6vectorI9JsonValueNS9_ISD_EEEENS_3mapISB_SD_NS_4lessISB_EENS9_INS_4pairIKSB_SD_EEEEEEEEELm4EEEODaOT_NS_16in_place_index_tIXT0_EEE, symObjAddr: 0x814C, symBinAddr: 0x100008734, symSize: 0x24 }
  - { offset: 0x18CF3, size: 0x8, addend: 0x0, symName: __ZNSt3__116__variant_detail8__access7__union9__get_altB8ne180100IRKNS0_7__unionILNS0_6_TraitE1ELm2EJdNS_12basic_stringIcNS_11char_traitsIcEENS_9allocatorIcEEEENS_6vectorI9JsonValueNS9_ISD_EEEENS_3mapISB_SD_NS_4lessISB_EENS9_INS_4pairIKSB_SD_EEEEEEEEELm3EEEODaOT_NS_16in_place_index_tIXT0_EEE, symObjAddr: 0x8170, symBinAddr: 0x100008758, symSize: 0x24 }
  - { offset: 0x18D36, size: 0x8, addend: 0x0, symName: __ZNSt3__116__variant_detail8__access7__union9__get_altB8ne180100IRKNS0_7__unionILNS0_6_TraitE1ELm3EJNS_12basic_stringIcNS_11char_traitsIcEENS_9allocatorIcEEEENS_6vectorI9JsonValueNS9_ISD_EEEENS_3mapISB_SD_NS_4lessISB_EENS9_INS_4pairIKSB_SD_EEEEEEEEELm2EEEODaOT_NS_16in_place_index_tIXT0_EEE, symObjAddr: 0x8194, symBinAddr: 0x10000877C, symSize: 0x24 }
  - { offset: 0x18D79, size: 0x8, addend: 0x0, symName: __ZNSt3__116__variant_detail8__access7__union9__get_altB8ne180100IRKNS0_7__unionILNS0_6_TraitE1ELm4EJNS_6vectorI9JsonValueNS_9allocatorIS7_EEEENS_3mapINS_12basic_stringIcNS_11char_traitsIcEENS8_IcEEEES7_NS_4lessISG_EENS8_INS_4pairIKSG_S7_EEEEEEEEELm1EEEODaOT_NS_16in_place_index_tIXT0_EEE, symObjAddr: 0x81B8, symBinAddr: 0x1000087A0, symSize: 0x24 }
  - { offset: 0x18DBC, size: 0x8, addend: 0x0, symName: __ZNSt3__116__variant_detail8__access7__union9__get_altB8ne180100IRKNS0_7__unionILNS0_6_TraitE1ELm5EJNS_3mapINS_12basic_stringIcNS_11char_traitsIcEENS_9allocatorIcEEEE9JsonValueNS_4lessISC_EENSA_INS_4pairIKSC_SD_EEEEEEEEEEEODaOT_NS_16in_place_index_tILm0EEE, symObjAddr: 0x81DC, symBinAddr: 0x1000087C4, symSize: 0x14 }
  - { offset: 0x18DF5, size: 0x8, addend: 0x0, symName: __ZNSt3__116__variant_detail18__move_constructorINS0_8__traitsIJDnbdNS_12basic_stringIcNS_11char_traitsIcEENS_9allocatorIcEEEENS_6vectorI9JsonValueNS6_ISA_EEEENS_3mapIS8_SA_NS_4lessIS8_EENS6_INS_4pairIKS8_SA_EEEEEEEEELNS0_6_TraitE1EED2Ev, symObjAddr: 0x81F0, symBinAddr: 0x1000087D8, symSize: 0x2C }
  - { offset: 0x18E1F, size: 0x8, addend: 0x0, symName: __ZNSt3__116__variant_detail6__ctorINS0_8__traitsIJDnbdNS_12basic_stringIcNS_11char_traitsIcEENS_9allocatorIcEEEENS_6vectorI9JsonValueNS6_ISA_EEEENS_3mapIS8_SA_NS_4lessIS8_EENS6_INS_4pairIKS8_SA_EEEEEEEEEED2Ev, symObjAddr: 0x821C, symBinAddr: 0x100008804, symSize: 0x2C }
  - { offset: 0x18E4C, size: 0x8, addend: 0x0, symName: __ZNSt3__116__variant_detail6__dtorINS0_8__traitsIJDnbdNS_12basic_stringIcNS_11char_traitsIcEENS_9allocatorIcEEEENS_6vectorI9JsonValueNS6_ISA_EEEENS_3mapIS8_SA_NS_4lessIS8_EENS6_INS_4pairIKS8_SA_EEEEEEEEELNS0_6_TraitE1EED2Ev, symObjAddr: 0x8248, symBinAddr: 0x100008830, symSize: 0x34 }
  - { offset: 0x18E76, size: 0x8, addend: 0x0, symName: __ZNSt3__116__variant_detail6__baseILNS0_6_TraitE1EJDnbdNS_12basic_stringIcNS_11char_traitsIcEENS_9allocatorIcEEEENS_6vectorI9JsonValueNS6_ISA_EEEENS_3mapIS8_SA_NS_4lessIS8_EENS6_INS_4pairIKS8_SA_EEEEEEEED2Ev, symObjAddr: 0x827C, symBinAddr: 0x100008864, symSize: 0x2C }
  - { offset: 0x18EA3, size: 0x8, addend: 0x0, symName: __ZNSt3__116__variant_detail7__unionILNS0_6_TraitE1ELm0EJDnbdNS_12basic_stringIcNS_11char_traitsIcEENS_9allocatorIcEEEENS_6vectorI9JsonValueNS6_ISA_EEEENS_3mapIS8_SA_NS_4lessIS8_EENS6_INS_4pairIKS8_SA_EEEEEEEED1Ev, symObjAddr: 0x82A8, symBinAddr: 0x100008890, symSize: 0x2C }
  - { offset: 0x18ECD, size: 0x8, addend: 0x0, symName: __ZNSt3__116__variant_detail7__unionILNS0_6_TraitE1ELm0EJDnbdNS_12basic_stringIcNS_11char_traitsIcEENS_9allocatorIcEEEENS_6vectorI9JsonValueNS6_ISA_EEEENS_3mapIS8_SA_NS_4lessIS8_EENS6_INS_4pairIKS8_SA_EEEEEEEED2Ev, symObjAddr: 0x82D4, symBinAddr: 0x1000088BC, symSize: 0x14 }
  - { offset: 0x18EF7, size: 0x8, addend: 0x0, symName: __ZNSt3__128__exception_guard_exceptionsINS_29_AllocatorDestroyRangeReverseINS_9allocatorI9JsonValueEEPS3_EEED2B8ne180100Ev, symObjAddr: 0x82E8, symBinAddr: 0x1000088D0, symSize: 0x50 }
  - { offset: 0x18F21, size: 0x8, addend: 0x0, symName: __ZNKSt3__129_AllocatorDestroyRangeReverseINS_9allocatorI9JsonValueEEPS2_EclB8ne180100Ev, symObjAddr: 0x8338, symBinAddr: 0x100008920, symSize: 0x68 }
  - { offset: 0x18F47, size: 0x8, addend: 0x0, symName: __ZNSt3__116reverse_iteratorIP9JsonValueEC1B8ne180100ES2_, symObjAddr: 0x8410, symBinAddr: 0x1000089F8, symSize: 0x34 }
  - { offset: 0x18F7F, size: 0x8, addend: 0x0, symName: __ZNSt3__116reverse_iteratorIP9JsonValueEppB8ne180100Ev, symObjAddr: 0x84B0, symBinAddr: 0x100008A98, symSize: 0x20 }
  - { offset: 0x18FA5, size: 0x8, addend: 0x0, symName: __ZNKSt3__116reverse_iteratorIP9JsonValueE4baseB8ne180100Ev, symObjAddr: 0x84D0, symBinAddr: 0x100008AB8, symSize: 0x18 }
  - { offset: 0x18FD1, size: 0x8, addend: 0x0, symName: __ZNSt3__119__to_address_helperINS_16reverse_iteratorIP9JsonValueEEvE6__callB8ne180100ERKS4_, symObjAddr: 0x84E8, symBinAddr: 0x100008AD0, symSize: 0x38 }
  - { offset: 0x18FF4, size: 0x8, addend: 0x0, symName: __ZNKSt3__116reverse_iteratorIP9JsonValueEptB8ne180100Ev, symObjAddr: 0x8520, symBinAddr: 0x100008B08, symSize: 0x24 }
  - { offset: 0x1901A, size: 0x8, addend: 0x0, symName: __ZNKSt3__116reverse_iteratorIP9JsonValueEdeB8ne180100Ev, symObjAddr: 0x8544, symBinAddr: 0x100008B2C, symSize: 0x28 }
  - { offset: 0x1904E, size: 0x8, addend: 0x0, symName: __ZNSt3__116reverse_iteratorIP9JsonValueEC2B8ne180100ES2_, symObjAddr: 0x856C, symBinAddr: 0x100008B54, symSize: 0x28 }
  - { offset: 0x19086, size: 0x8, addend: 0x0, symName: __ZNSt3__118__unwrap_iter_implIP9JsonValueLb1EE8__unwrapB8ne180100ES2_, symObjAddr: 0x8594, symBinAddr: 0x100008B7C, symSize: 0x24 }
  - { offset: 0x190A9, size: 0x8, addend: 0x0, symName: __ZNSt3__118__unwrap_iter_implIP9JsonValueLb1EE8__rewrapB8ne180100ES2_S2_, symObjAddr: 0x85B8, symBinAddr: 0x100008BA0, symSize: 0x50 }
  - { offset: 0x190DA, size: 0x8, addend: 0x0, symName: __ZNSt3__16vectorI9JsonValueNS_9allocatorIS1_EEE21_ConstructTransactionD2B8ne180100Ev, symObjAddr: 0x8608, symBinAddr: 0x100008BF0, symSize: 0x20 }
  - { offset: 0x1910F, size: 0x8, addend: 0x0, symName: __ZNKSt3__111__copy_loopINS_17_ClassicAlgPolicyEEclB8ne180100IP9JsonValueS5_S5_EENS_4pairIT_T1_EES7_T0_S8_, symObjAddr: 0x8720, symBinAddr: 0x100008D08, symSize: 0x88 }
  - { offset: 0x1917A, size: 0x8, addend: 0x0, symName: __ZNKSt3__16vectorI9JsonValueNS_9allocatorIS1_EEE17__annotate_shrinkB8ne180100Em, symObjAddr: 0x87D4, symBinAddr: 0x100008DBC, symSize: 0x14 }
  - { offset: 0x191AF, size: 0x8, addend: 0x0, symName: __ZNSt3__16vectorI9JsonValueNS_9allocatorIS1_EEE5clearB8ne180100Ev, symObjAddr: 0x87E8, symBinAddr: 0x100008DD0, symSize: 0x44 }
  - { offset: 0x191E4, size: 0x8, addend: 0x0, symName: __ZNSt3__16vectorI9JsonValueNS_9allocatorIS1_EEE9__end_capB8ne180100Ev, symObjAddr: 0x882C, symBinAddr: 0x100008E14, symSize: 0x28 }
  - { offset: 0x1920A, size: 0x8, addend: 0x0, symName: __ZNSt3__117__compressed_pairIP9JsonValueNS_9allocatorIS1_EEE5firstB8ne180100Ev, symObjAddr: 0x8854, symBinAddr: 0x100008E3C, symSize: 0x24 }
  - { offset: 0x19230, size: 0x8, addend: 0x0, symName: __ZNSt3__122__compressed_pair_elemIP9JsonValueLi0ELb0EE5__getB8ne180100Ev, symObjAddr: 0x8878, symBinAddr: 0x100008E60, symSize: 0x14 }
  - { offset: 0x19256, size: 0x8, addend: 0x0, symName: __ZNKSt3__16vectorI9JsonValueNS_9allocatorIS1_EEE8max_sizeEv, symObjAddr: 0x888C, symBinAddr: 0x100008E74, symSize: 0x60 }
  - { offset: 0x1927E, size: 0x8, addend: 0x0, symName: __ZNKSt3__16vectorI9JsonValueNS_9allocatorIS1_EEE20__throw_length_errorB8ne180100Ev, symObjAddr: 0x88EC, symBinAddr: 0x100008ED4, symSize: 0x1C }
  - { offset: 0x192A4, size: 0x8, addend: 0x0, symName: __ZNKSt3__16vectorI9JsonValueNS_9allocatorIS1_EEE14__annotate_newB8ne180100Em, symObjAddr: 0x8948, symBinAddr: 0x100008F30, symSize: 0x14 }
  - { offset: 0x192D9, size: 0x8, addend: 0x0, symName: __ZNSt3__116allocator_traitsINS_9allocatorI9JsonValueEEE8max_sizeB8ne180100IS3_vEEmRKS3_, symObjAddr: 0x895C, symBinAddr: 0x100008F44, symSize: 0x24 }
  - { offset: 0x19307, size: 0x8, addend: 0x0, symName: __ZNSt3__114numeric_limitsIlE3maxB8ne180100Ev, symObjAddr: 0x8980, symBinAddr: 0x100008F68, symSize: 0x14 }
  - { offset: 0x1931B, size: 0x8, addend: 0x0, symName: __ZNKSt3__19allocatorI9JsonValueE8max_sizeB8ne180100Ev, symObjAddr: 0x8994, symBinAddr: 0x100008F7C, symSize: 0x14 }
  - { offset: 0x19341, size: 0x8, addend: 0x0, symName: __ZNSt3__123__libcpp_numeric_limitsIlLb1EE3maxB8ne180100Ev, symObjAddr: 0x89A8, symBinAddr: 0x100008F90, symSize: 0x8 }
  - { offset: 0x19355, size: 0x8, addend: 0x0, symName: __ZNSt12length_errorC1B8ne180100EPKc, symObjAddr: 0x8A14, symBinAddr: 0x100008FFC, symSize: 0x34 }
  - { offset: 0x1938D, size: 0x8, addend: 0x0, symName: __ZNSt12length_errorC2B8ne180100EPKc, symObjAddr: 0x8A48, symBinAddr: 0x100009030, symSize: 0x44 }
  - { offset: 0x193C5, size: 0x8, addend: 0x0, symName: __ZNSt3__19allocatorI9JsonValueE8allocateB8ne180100Em, symObjAddr: 0x8A8C, symBinAddr: 0x100009074, symSize: 0x58 }
  - { offset: 0x193F9, size: 0x8, addend: 0x0, symName: __ZNSt3__116__variant_detail12__assignmentINS0_8__traitsIJDnbdNS_12basic_stringIcNS_11char_traitsIcEENS_9allocatorIcEEEENS_6vectorI9JsonValueNS6_ISA_EEEENS_3mapIS8_SA_NS_4lessIS8_EENS6_INS_4pairIKS8_SA_EEEEEEEEEE9__emplaceB8ne180100ILm4EJSC_EEERDaDpOT0_, symObjAddr: 0x8B8C, symBinAddr: 0x100009174, symSize: 0x50 }
  - { offset: 0x19452, size: 0x8, addend: 0x0, symName: __ZNSt3__116__variant_detail6__ctorINS0_8__traitsIJDnbdNS_12basic_stringIcNS_11char_traitsIcEENS_9allocatorIcEEEENS_6vectorI9JsonValueNS6_ISA_EEEENS_3mapIS8_SA_NS_4lessIS8_EENS6_INS_4pairIKS8_SA_EEEEEEEEEE15__construct_altB8ne180100ILm4ESC_JSC_EEERT0_RNS0_5__altIXT_ESO_EEDpOT1_, symObjAddr: 0x8BDC, symBinAddr: 0x1000091C4, symSize: 0x30 }
  - { offset: 0x194A3, size: 0x8, addend: 0x0, symName: __ZNSt3__116__variant_detail8__access6__base9__get_altB8ne180100ILm4ERNS0_12__assignmentINS0_8__traitsIJDnbdNS_12basic_stringIcNS_11char_traitsIcEENS_9allocatorIcEEEENS_6vectorI9JsonValueNS9_ISD_EEEENS_3mapISB_SD_NS_4lessISB_EENS9_INS_4pairIKSB_SD_EEEEEEEEEEEEEODaOT0_, symObjAddr: 0x8C0C, symBinAddr: 0x1000091F4, symSize: 0x24 }
  - { offset: 0x194DA, size: 0x8, addend: 0x0, symName: __ZNSt3__116__variant_detail5__altILm4ENS_6vectorI9JsonValueNS_9allocatorIS3_EEEEEC1B8ne180100IJS6_EEENS_10in_place_tEDpOT_, symObjAddr: 0x8C30, symBinAddr: 0x100009218, symSize: 0x34 }
  - { offset: 0x1952A, size: 0x8, addend: 0x0, symName: __ZNSt3__116__variant_detail5__altILm4ENS_6vectorI9JsonValueNS_9allocatorIS3_EEEEEC2B8ne180100IJS6_EEENS_10in_place_tEDpOT_, symObjAddr: 0x8C64, symBinAddr: 0x10000924C, symSize: 0x34 }
  - { offset: 0x1957A, size: 0x8, addend: 0x0, symName: __ZNSt3__16vectorI9JsonValueNS_9allocatorIS1_EEEC1B8ne180100EOS4_, symObjAddr: 0x8C98, symBinAddr: 0x100009280, symSize: 0x34 }
  - { offset: 0x195B5, size: 0x8, addend: 0x0, symName: __ZNSt3__16vectorI9JsonValueNS_9allocatorIS1_EEEC2B8ne180100EOS4_, symObjAddr: 0x8CCC, symBinAddr: 0x1000092B4, symSize: 0xC4 }
  - { offset: 0x195F0, size: 0x8, addend: 0x0, symName: __ZNSt3__116__variant_detail8__access7__union9__get_altB8ne180100IRKNS0_7__unionILNS0_6_TraitE1ELm0EJDnbdNS_12basic_stringIcNS_11char_traitsIcEENS_9allocatorIcEEEENS_6vectorI9JsonValueNS9_ISD_EEEENS_3mapISB_SD_NS_4lessISB_EENS9_INS_4pairIKSB_SD_EEEEEEEEELm4EEEODaOT_NS_16in_place_index_tIXT0_EEE, symObjAddr: 0x8D90, symBinAddr: 0x100009378, symSize: 0x24 }
  - { offset: 0x19633, size: 0x8, addend: 0x0, symName: __ZNSt3__116__variant_detail8__access7__union9__get_altB8ne180100IRKNS0_7__unionILNS0_6_TraitE1ELm1EJbdNS_12basic_stringIcNS_11char_traitsIcEENS_9allocatorIcEEEENS_6vectorI9JsonValueNS9_ISD_EEEENS_3mapISB_SD_NS_4lessISB_EENS9_INS_4pairIKSB_SD_EEEEEEEEELm3EEEODaOT_NS_16in_place_index_tIXT0_EEE, symObjAddr: 0x8DB4, symBinAddr: 0x10000939C, symSize: 0x24 }
  - { offset: 0x19676, size: 0x8, addend: 0x0, symName: __ZNSt3__116__variant_detail8__access7__union9__get_altB8ne180100IRKNS0_7__unionILNS0_6_TraitE1ELm2EJdNS_12basic_stringIcNS_11char_traitsIcEENS_9allocatorIcEEEENS_6vectorI9JsonValueNS9_ISD_EEEENS_3mapISB_SD_NS_4lessISB_EENS9_INS_4pairIKSB_SD_EEEEEEEEELm2EEEODaOT_NS_16in_place_index_tIXT0_EEE, symObjAddr: 0x8DD8, symBinAddr: 0x1000093C0, symSize: 0x24 }
  - { offset: 0x196B9, size: 0x8, addend: 0x0, symName: __ZNSt3__116__variant_detail8__access7__union9__get_altB8ne180100IRKNS0_7__unionILNS0_6_TraitE1ELm3EJNS_12basic_stringIcNS_11char_traitsIcEENS_9allocatorIcEEEENS_6vectorI9JsonValueNS9_ISD_EEEENS_3mapISB_SD_NS_4lessISB_EENS9_INS_4pairIKSB_SD_EEEEEEEEELm1EEEODaOT_NS_16in_place_index_tIXT0_EEE, symObjAddr: 0x8DFC, symBinAddr: 0x1000093E4, symSize: 0x24 }
  - { offset: 0x196FC, size: 0x8, addend: 0x0, symName: __ZNSt3__116__variant_detail8__access7__union9__get_altB8ne180100IRKNS0_7__unionILNS0_6_TraitE1ELm4EJNS_6vectorI9JsonValueNS_9allocatorIS7_EEEENS_3mapINS_12basic_stringIcNS_11char_traitsIcEENS8_IcEEEES7_NS_4lessISG_EENS8_INS_4pairIKSG_S7_EEEEEEEEEEEODaOT_NS_16in_place_index_tILm0EEE, symObjAddr: 0x8E20, symBinAddr: 0x100009408, symSize: 0x14 }
  - { offset: 0x19735, size: 0x8, addend: 0x0, symName: __ZZNSt3__116__variant_detail12__assignmentINS0_8__traitsIJDnbdNS_12basic_stringIcNS_11char_traitsIcEENS_9allocatorIcEEEENS_6vectorI9JsonValueNS6_ISA_EEEENS_3mapIS8_SA_NS_4lessIS8_EENS6_INS_4pairIKS8_SA_EEEEEEEEEE16__generic_assignB8ne180100IRKNS0_17__copy_assignmentISL_LNS0_6_TraitE1EEEEEvOT_ENKUlRST_OT0_E_clINS0_5__altILm5ESK_EERKS11_EEDaSV_SX_, symObjAddr: 0x8E68, symBinAddr: 0x100009450, symSize: 0x38 }
  - { offset: 0x1978F, size: 0x8, addend: 0x0, symName: __ZNSt3__116__variant_detail12__assignmentINS0_8__traitsIJDnbdNS_12basic_stringIcNS_11char_traitsIcEENS_9allocatorIcEEEENS_6vectorI9JsonValueNS6_ISA_EEEENS_3mapIS8_SA_NS_4lessIS8_EENS6_INS_4pairIKS8_SA_EEEEEEEEEE12__assign_altB8ne180100ILm5ESK_RKSK_EEvRNS0_5__altIXT_ET0_EEOT1_, symObjAddr: 0x8EA0, symBinAddr: 0x100009488, symSize: 0x6C }
  - { offset: 0x19854, size: 0x8, addend: 0x0, symName: __ZNSt3__13mapINS_12basic_stringIcNS_11char_traitsIcEENS_9allocatorIcEEEE9JsonValueNS_4lessIS6_EENS4_INS_4pairIKS6_S7_EEEEEaSB8ne180100ERKSE_, symObjAddr: 0x8F0C, symBinAddr: 0x1000094F4, symSize: 0x34 }
  - { offset: 0x19894, size: 0x8, addend: 0x0, symName: __ZZNSt3__116__variant_detail12__assignmentINS0_8__traitsIJDnbdNS_12basic_stringIcNS_11char_traitsIcEENS_9allocatorIcEEEENS_6vectorI9JsonValueNS6_ISA_EEEENS_3mapIS8_SA_NS_4lessIS8_EENS6_INS_4pairIKS8_SA_EEEEEEEEEE12__assign_altB8ne180100ILm5ESK_RKSK_EEvRNS0_5__altIXT_ET0_EEOT1_ENKUt_clB8ne180100ENS_17integral_constantIbLb0EEE, symObjAddr: 0x8F40, symBinAddr: 0x100009528, symSize: 0x70 }
  - { offset: 0x198CA, size: 0x8, addend: 0x0, symName: __ZNSt3__16__treeINS_12__value_typeINS_12basic_stringIcNS_11char_traitsIcEENS_9allocatorIcEEEE9JsonValueEENS_19__map_value_compareIS7_S9_NS_4lessIS7_EELb1EEENS5_IS9_EEEaSERKSF_, symObjAddr: 0x8FB0, symBinAddr: 0x100009598, symSize: 0x8C }
  - { offset: 0x19901, size: 0x8, addend: 0x0, symName: __ZNSt3__16__treeINS_12__value_typeINS_12basic_stringIcNS_11char_traitsIcEENS_9allocatorIcEEEE9JsonValueEENS_19__map_value_compareIS7_S9_NS_4lessIS7_EELb1EEENS5_IS9_EEE19__copy_assign_allocB8ne180100ERKSF_, symObjAddr: 0x903C, symBinAddr: 0x100009624, symSize: 0x2C }
  - { offset: 0x19936, size: 0x8, addend: 0x0, symName: __ZNSt3__16__treeINS_12__value_typeINS_12basic_stringIcNS_11char_traitsIcEENS_9allocatorIcEEEE9JsonValueEENS_19__map_value_compareIS7_S9_NS_4lessIS7_EELb1EEENS5_IS9_EEE14__assign_multiINS_21__tree_const_iteratorIS9_PNS_11__tree_nodeIS9_PvEElEEEEvT_SN_, symObjAddr: 0x9068, symBinAddr: 0x100009650, symSize: 0x174 }
  - { offset: 0x1999A, size: 0x8, addend: 0x0, symName: __ZNSt3__16__treeINS_12__value_typeINS_12basic_stringIcNS_11char_traitsIcEENS_9allocatorIcEEEE9JsonValueEENS_19__map_value_compareIS7_S9_NS_4lessIS7_EELb1EEENS5_IS9_EEE19__copy_assign_allocB8ne180100ERKSF_NS_17integral_constantIbLb0EEE, symObjAddr: 0x91DC, symBinAddr: 0x1000097C4, symSize: 0x14 }
  - { offset: 0x199FB, size: 0x8, addend: 0x0, symName: __ZNSt3__16__treeINS_12__value_typeINS_12basic_stringIcNS_11char_traitsIcEENS_9allocatorIcEEEE9JsonValueEENS_19__map_value_compareIS7_S9_NS_4lessIS7_EELb1EEENS5_IS9_EEE18_DetachedTreeCacheC1B8ne180100EPSF_, symObjAddr: 0x91F0, symBinAddr: 0x1000097D8, symSize: 0x34 }
  - { offset: 0x19A34, size: 0x8, addend: 0x0, symName: __ZNKSt3__16__treeINS_12__value_typeINS_12basic_stringIcNS_11char_traitsIcEENS_9allocatorIcEEEE9JsonValueEENS_19__map_value_compareIS7_S9_NS_4lessIS7_EELb1EEENS5_IS9_EEE18_DetachedTreeCache5__getB8ne180100Ev, symObjAddr: 0x9224, symBinAddr: 0x10000980C, symSize: 0x18 }
  - { offset: 0x19A5A, size: 0x8, addend: 0x0, symName: __ZNSt3__112__value_typeINS_12basic_stringIcNS_11char_traitsIcEENS_9allocatorIcEEEE9JsonValueEaSB8ne180100ERKS8_, symObjAddr: 0x923C, symBinAddr: 0x100009824, symSize: 0x60 }
  - { offset: 0x19A8F, size: 0x8, addend: 0x0, symName: __ZNSt3__16__treeINS_12__value_typeINS_12basic_stringIcNS_11char_traitsIcEENS_9allocatorIcEEEE9JsonValueEENS_19__map_value_compareIS7_S9_NS_4lessIS7_EELb1EEENS5_IS9_EEE19__node_insert_multiEPNS_11__tree_nodeIS9_PvEE, symObjAddr: 0x929C, symBinAddr: 0x100009884, symSize: 0x70 }
  - { offset: 0x19AE4, size: 0x8, addend: 0x0, symName: __ZNSt3__16__treeINS_12__value_typeINS_12basic_stringIcNS_11char_traitsIcEENS_9allocatorIcEEEE9JsonValueEENS_19__map_value_compareIS7_S9_NS_4lessIS7_EELb1EEENS5_IS9_EEE18_DetachedTreeCache9__advanceB8ne180100Ev, symObjAddr: 0x930C, symBinAddr: 0x1000098F4, symSize: 0x58 }
  - { offset: 0x19B0A, size: 0x8, addend: 0x0, symName: __ZNSt3__16__treeINS_12__value_typeINS_12basic_stringIcNS_11char_traitsIcEENS_9allocatorIcEEEE9JsonValueEENS_19__map_value_compareIS7_S9_NS_4lessIS7_EELb1EEENS5_IS9_EEE18_DetachedTreeCacheD1B8ne180100Ev, symObjAddr: 0x9364, symBinAddr: 0x10000994C, symSize: 0x2C }
  - { offset: 0x19B34, size: 0x8, addend: 0x0, symName: __ZNSt3__16__treeINS_12__value_typeINS_12basic_stringIcNS_11char_traitsIcEENS_9allocatorIcEEEE9JsonValueEENS_19__map_value_compareIS7_S9_NS_4lessIS7_EELb1EEENS5_IS9_EEE14__insert_multiB8ne180100IRKNS_4pairIKS7_S8_EEEENS_15__tree_iteratorIS9_PNS_11__tree_nodeIS9_PvEElEEOT_, symObjAddr: 0x9390, symBinAddr: 0x100009978, symSize: 0x34 }
  - { offset: 0x19B72, size: 0x8, addend: 0x0, symName: __ZNSt3__122__tree_key_value_typesINS_12__value_typeINS_12basic_stringIcNS_11char_traitsIcEENS_9allocatorIcEEEE9JsonValueEEE11__get_valueB8ne180100ERKS9_, symObjAddr: 0x93C4, symBinAddr: 0x1000099AC, symSize: 0x24 }
  - { offset: 0x19B96, size: 0x8, addend: 0x0, symName: __ZNSt3__16__treeINS_12__value_typeINS_12basic_stringIcNS_11char_traitsIcEENS_9allocatorIcEEEE9JsonValueEENS_19__map_value_compareIS7_S9_NS_4lessIS7_EELb1EEENS5_IS9_EEE18_DetachedTreeCacheC2B8ne180100EPSF_, symObjAddr: 0x93E8, symBinAddr: 0x1000099D0, symSize: 0x4C }
  - { offset: 0x19BCF, size: 0x8, addend: 0x0, symName: __ZNSt3__16__treeINS_12__value_typeINS_12basic_stringIcNS_11char_traitsIcEENS_9allocatorIcEEEE9JsonValueEENS_19__map_value_compareIS7_S9_NS_4lessIS7_EELb1EEENS5_IS9_EEE18_DetachedTreeCache18__detach_from_treeEPSF_, symObjAddr: 0x9434, symBinAddr: 0x100009A1C, symSize: 0xA0 }
  - { offset: 0x19C04, size: 0x8, addend: 0x0, symName: __ZNSt3__112__value_typeINS_12basic_stringIcNS_11char_traitsIcEENS_9allocatorIcEEEE9JsonValueE5__refB8ne180100Ev, symObjAddr: 0x94D4, symBinAddr: 0x100009ABC, symSize: 0x44 }
  - { offset: 0x19C39, size: 0x8, addend: 0x0, symName: __ZNSt3__14pairIRNS_12basic_stringIcNS_11char_traitsIcEENS_9allocatorIcEEEER9JsonValueEaSB8ne180100IKS6_S8_LPv0EEERSA_RKNS0_IT_T0_EE, symObjAddr: 0x9518, symBinAddr: 0x100009B00, symSize: 0x4C }
  - { offset: 0x19C86, size: 0x8, addend: 0x0, symName: __ZNSt3__14pairIRNS_12basic_stringIcNS_11char_traitsIcEENS_9allocatorIcEEEER9JsonValueEC1B8ne180100ILb1ELi0EEES7_S9_, symObjAddr: 0x9564, symBinAddr: 0x100009B4C, symSize: 0x3C }
  - { offset: 0x19CDC, size: 0x8, addend: 0x0, symName: __ZNSt3__14pairIRNS_12basic_stringIcNS_11char_traitsIcEENS_9allocatorIcEEEER9JsonValueEC2B8ne180100ILb1ELi0EEES7_S9_, symObjAddr: 0x95A0, symBinAddr: 0x100009B88, symSize: 0x2C }
  - { offset: 0x19D32, size: 0x8, addend: 0x0, symName: __ZNSt3__16__treeINS_12__value_typeINS_12basic_stringIcNS_11char_traitsIcEENS_9allocatorIcEEEE9JsonValueEENS_19__map_value_compareIS7_S9_NS_4lessIS7_EELb1EEENS5_IS9_EEE16__find_leaf_highERPNS_15__tree_end_nodeIPNS_16__tree_node_baseIPvEEEERKS7_, symObjAddr: 0x95CC, symBinAddr: 0x100009BB4, symSize: 0x124 }
  - { offset: 0x19D87, size: 0x8, addend: 0x0, symName: __ZNSt3__122__tree_key_value_typesINS_12__value_typeINS_12basic_stringIcNS_11char_traitsIcEENS_9allocatorIcEEEE9JsonValueEEE9__get_keyB8ne180100ERKS9_, symObjAddr: 0x96F0, symBinAddr: 0x100009CD8, symSize: 0x24 }
  - { offset: 0x19DAB, size: 0x8, addend: 0x0, symName: __ZNSt3__16__treeINS_12__value_typeINS_12basic_stringIcNS_11char_traitsIcEENS_9allocatorIcEEEE9JsonValueEENS_19__map_value_compareIS7_S9_NS_4lessIS7_EELb1EEENS5_IS9_EEE18_DetachedTreeCache13__detach_nextEPNS_11__tree_nodeIS9_PvEE, symObjAddr: 0x9714, symBinAddr: 0x100009CFC, symSize: 0xF0 }
  - { offset: 0x19DD1, size: 0x8, addend: 0x0, symName: __ZNSt3__16__treeINS_12__value_typeINS_12basic_stringIcNS_11char_traitsIcEENS_9allocatorIcEEEE9JsonValueEENS_19__map_value_compareIS7_S9_NS_4lessIS7_EELb1EEENS5_IS9_EEE18_DetachedTreeCacheD2B8ne180100Ev, symObjAddr: 0x9874, symBinAddr: 0x100009E5C, symSize: 0x9C }
  - { offset: 0x19DFB, size: 0x8, addend: 0x0, symName: __ZNSt3__16__treeINS_12__value_typeINS_12basic_stringIcNS_11char_traitsIcEENS_9allocatorIcEEEE9JsonValueEENS_19__map_value_compareIS7_S9_NS_4lessIS7_EELb1EEENS5_IS9_EEE15__emplace_multiIJRKNS_4pairIKS7_S8_EEEEENS_15__tree_iteratorIS9_PNS_11__tree_nodeIS9_PvEElEEDpOT_, symObjAddr: 0x9910, symBinAddr: 0x100009EF8, symSize: 0xD8 }
  - { offset: 0x19E6B, size: 0x8, addend: 0x0, symName: __ZNSt3__116__variant_detail12__assignmentINS0_8__traitsIJDnbdNS_12basic_stringIcNS_11char_traitsIcEENS_9allocatorIcEEEENS_6vectorI9JsonValueNS6_ISA_EEEENS_3mapIS8_SA_NS_4lessIS8_EENS6_INS_4pairIKS8_SA_EEEEEEEEEE9__emplaceB8ne180100ILm5EJSK_EEERDaDpOT0_, symObjAddr: 0x99E8, symBinAddr: 0x100009FD0, symSize: 0x50 }
  - { offset: 0x19EC4, size: 0x8, addend: 0x0, symName: __ZNSt3__116__variant_detail6__ctorINS0_8__traitsIJDnbdNS_12basic_stringIcNS_11char_traitsIcEENS_9allocatorIcEEEENS_6vectorI9JsonValueNS6_ISA_EEEENS_3mapIS8_SA_NS_4lessIS8_EENS6_INS_4pairIKS8_SA_EEEEEEEEEE15__construct_altB8ne180100ILm5ESK_JSK_EEERT0_RNS0_5__altIXT_ESO_EEDpOT1_, symObjAddr: 0x9A38, symBinAddr: 0x10000A020, symSize: 0x30 }
  - { offset: 0x19F15, size: 0x8, addend: 0x0, symName: __ZNSt3__116__variant_detail8__access6__base9__get_altB8ne180100ILm5ERNS0_12__assignmentINS0_8__traitsIJDnbdNS_12basic_stringIcNS_11char_traitsIcEENS_9allocatorIcEEEENS_6vectorI9JsonValueNS9_ISD_EEEENS_3mapISB_SD_NS_4lessISB_EENS9_INS_4pairIKSB_SD_EEEEEEEEEEEEEODaOT0_, symObjAddr: 0x9A68, symBinAddr: 0x10000A050, symSize: 0x24 }
  - { offset: 0x19F4C, size: 0x8, addend: 0x0, symName: __ZNSt3__116__variant_detail5__altILm5ENS_3mapINS_12basic_stringIcNS_11char_traitsIcEENS_9allocatorIcEEEE9JsonValueNS_4lessIS8_EENS6_INS_4pairIKS8_S9_EEEEEEEC1B8ne180100IJSG_EEENS_10in_place_tEDpOT_, symObjAddr: 0x9A8C, symBinAddr: 0x10000A074, symSize: 0x34 }
  - { offset: 0x19F9C, size: 0x8, addend: 0x0, symName: __ZNSt3__116__variant_detail5__altILm5ENS_3mapINS_12basic_stringIcNS_11char_traitsIcEENS_9allocatorIcEEEE9JsonValueNS_4lessIS8_EENS6_INS_4pairIKS8_S9_EEEEEEEC2B8ne180100IJSG_EEENS_10in_place_tEDpOT_, symObjAddr: 0x9AC0, symBinAddr: 0x10000A0A8, symSize: 0x34 }
  - { offset: 0x19FEC, size: 0x8, addend: 0x0, symName: __ZNSt3__13mapINS_12basic_stringIcNS_11char_traitsIcEENS_9allocatorIcEEEE9JsonValueNS_4lessIS6_EENS4_INS_4pairIKS6_S7_EEEEEC1B8ne180100EOSE_, symObjAddr: 0x9AF4, symBinAddr: 0x10000A0DC, symSize: 0x34 }
  - { offset: 0x1A025, size: 0x8, addend: 0x0, symName: __ZNSt3__13mapINS_12basic_stringIcNS_11char_traitsIcEENS_9allocatorIcEEEE9JsonValueNS_4lessIS6_EENS4_INS_4pairIKS6_S7_EEEEEC2B8ne180100EOSE_, symObjAddr: 0x9B28, symBinAddr: 0x10000A110, symSize: 0x34 }
  - { offset: 0x1A05E, size: 0x8, addend: 0x0, symName: __ZNSt3__16__treeINS_12__value_typeINS_12basic_stringIcNS_11char_traitsIcEENS_9allocatorIcEEEE9JsonValueEENS_19__map_value_compareIS7_S9_NS_4lessIS7_EELb1EEENS5_IS9_EEEC1EOSF_, symObjAddr: 0x9B5C, symBinAddr: 0x10000A144, symSize: 0x34 }
  - { offset: 0x1A099, size: 0x8, addend: 0x0, symName: __ZNSt3__16__treeINS_12__value_typeINS_12basic_stringIcNS_11char_traitsIcEENS_9allocatorIcEEEE9JsonValueEENS_19__map_value_compareIS7_S9_NS_4lessIS7_EELb1EEENS5_IS9_EEEC2EOSF_, symObjAddr: 0x9B90, symBinAddr: 0x10000A178, symSize: 0xFC }
  - { offset: 0x1A0D4, size: 0x8, addend: 0x0, symName: __ZN9JsonValueCI2NSt3__17variantIJDnbdNS0_12basic_stringIcNS0_11char_traitsIcEENS0_9allocatorIcEEEENS0_6vectorIS_NS5_IS_EEEENS0_3mapIS7_S_NS0_4lessIS7_EENS5_INS0_4pairIKS7_S_EEEEEEEEEIRSI_Li0ELi0ELi0ESI_Lm5ELi0EEEOT_, symObjAddr: 0x9C8C, symBinAddr: 0x10000A274, symSize: 0x34 }
  - { offset: 0x1A109, size: 0x8, addend: 0x0, symName: __ZNSt3__17variantIJDnbdNS_12basic_stringIcNS_11char_traitsIcEENS_9allocatorIcEEEENS_6vectorI9JsonValueNS4_IS8_EEEENS_3mapIS6_S8_NS_4lessIS6_EENS4_INS_4pairIKS6_S8_EEEEEEEEC2B8ne180100IRSI_Li0ELi0ELi0ESI_Lm5ELi0EEEOT_, symObjAddr: 0x9CC0, symBinAddr: 0x10000A2A8, symSize: 0x34 }
  - { offset: 0x1A176, size: 0x8, addend: 0x0, symName: __ZNSt3__116__variant_detail6__implIJDnbdNS_12basic_stringIcNS_11char_traitsIcEENS_9allocatorIcEEEENS_6vectorI9JsonValueNS5_IS9_EEEENS_3mapIS7_S9_NS_4lessIS7_EENS5_INS_4pairIKS7_S9_EEEEEEEECI1NS0_6__baseILNS0_6_TraitE1EJDnbdS7_SB_SJ_EEEILm5EJRSJ_EEENS_16in_place_index_tIXT_EEEDpOT0_, symObjAddr: 0x9CF4, symBinAddr: 0x10000A2DC, symSize: 0x34 }
  - { offset: 0x1A1B5, size: 0x8, addend: 0x0, symName: __ZNSt3__116__variant_detail6__implIJDnbdNS_12basic_stringIcNS_11char_traitsIcEENS_9allocatorIcEEEENS_6vectorI9JsonValueNS5_IS9_EEEENS_3mapIS7_S9_NS_4lessIS7_EENS5_INS_4pairIKS7_S9_EEEEEEEECI2NS0_6__baseILNS0_6_TraitE1EJDnbdS7_SB_SJ_EEEILm5EJRSJ_EEENS_16in_place_index_tIXT_EEEDpOT0_, symObjAddr: 0x9D28, symBinAddr: 0x10000A310, symSize: 0x34 }
  - { offset: 0x1A1F4, size: 0x8, addend: 0x0, symName: __ZNSt3__116__variant_detail17__copy_assignmentINS0_8__traitsIJDnbdNS_12basic_stringIcNS_11char_traitsIcEENS_9allocatorIcEEEENS_6vectorI9JsonValueNS6_ISA_EEEENS_3mapIS8_SA_NS_4lessIS8_EENS6_INS_4pairIKS8_SA_EEEEEEEEELNS0_6_TraitE1EECI2NS0_6__baseILSM_1EJDnbdS8_SC_SK_EEEILm5EJRSK_EEENS_16in_place_index_tIXT_EEEDpOT0_, symObjAddr: 0x9D5C, symBinAddr: 0x10000A344, symSize: 0x34 }
  - { offset: 0x1A233, size: 0x8, addend: 0x0, symName: __ZNSt3__116__variant_detail17__move_assignmentINS0_8__traitsIJDnbdNS_12basic_stringIcNS_11char_traitsIcEENS_9allocatorIcEEEENS_6vectorI9JsonValueNS6_ISA_EEEENS_3mapIS8_SA_NS_4lessIS8_EENS6_INS_4pairIKS8_SA_EEEEEEEEELNS0_6_TraitE1EECI2NS0_6__baseILSM_1EJDnbdS8_SC_SK_EEEILm5EJRSK_EEENS_16in_place_index_tIXT_EEEDpOT0_, symObjAddr: 0x9D90, symBinAddr: 0x10000A378, symSize: 0x34 }
  - { offset: 0x1A272, size: 0x8, addend: 0x0, symName: __ZNSt3__116__variant_detail12__assignmentINS0_8__traitsIJDnbdNS_12basic_stringIcNS_11char_traitsIcEENS_9allocatorIcEEEENS_6vectorI9JsonValueNS6_ISA_EEEENS_3mapIS8_SA_NS_4lessIS8_EENS6_INS_4pairIKS8_SA_EEEEEEEEEECI2NS0_6__baseILNS0_6_TraitE1EJDnbdS8_SC_SK_EEEILm5EJRSK_EEENS_16in_place_index_tIXT_EEEDpOT0_, symObjAddr: 0x9DC4, symBinAddr: 0x10000A3AC, symSize: 0x34 }
  - { offset: 0x1A2B1, size: 0x8, addend: 0x0, symName: __ZNSt3__116__variant_detail18__copy_constructorINS0_8__traitsIJDnbdNS_12basic_stringIcNS_11char_traitsIcEENS_9allocatorIcEEEENS_6vectorI9JsonValueNS6_ISA_EEEENS_3mapIS8_SA_NS_4lessIS8_EENS6_INS_4pairIKS8_SA_EEEEEEEEELNS0_6_TraitE1EECI2NS0_6__baseILSM_1EJDnbdS8_SC_SK_EEEILm5EJRSK_EEENS_16in_place_index_tIXT_EEEDpOT0_, symObjAddr: 0x9DF8, symBinAddr: 0x10000A3E0, symSize: 0x34 }
  - { offset: 0x1A2F0, size: 0x8, addend: 0x0, symName: __ZNSt3__116__variant_detail18__move_constructorINS0_8__traitsIJDnbdNS_12basic_stringIcNS_11char_traitsIcEENS_9allocatorIcEEEENS_6vectorI9JsonValueNS6_ISA_EEEENS_3mapIS8_SA_NS_4lessIS8_EENS6_INS_4pairIKS8_SA_EEEEEEEEELNS0_6_TraitE1EECI2NS0_6__baseILSM_1EJDnbdS8_SC_SK_EEEILm5EJRSK_EEENS_16in_place_index_tIXT_EEEDpOT0_, symObjAddr: 0x9E2C, symBinAddr: 0x10000A414, symSize: 0x34 }
  - { offset: 0x1A32F, size: 0x8, addend: 0x0, symName: __ZNSt3__116__variant_detail6__ctorINS0_8__traitsIJDnbdNS_12basic_stringIcNS_11char_traitsIcEENS_9allocatorIcEEEENS_6vectorI9JsonValueNS6_ISA_EEEENS_3mapIS8_SA_NS_4lessIS8_EENS6_INS_4pairIKS8_SA_EEEEEEEEEECI2NS0_6__baseILNS0_6_TraitE1EJDnbdS8_SC_SK_EEEILm5EJRSK_EEENS_16in_place_index_tIXT_EEEDpOT0_, symObjAddr: 0x9E60, symBinAddr: 0x10000A448, symSize: 0x34 }
  - { offset: 0x1A36E, size: 0x8, addend: 0x0, symName: __ZNSt3__116__variant_detail6__dtorINS0_8__traitsIJDnbdNS_12basic_stringIcNS_11char_traitsIcEENS_9allocatorIcEEEENS_6vectorI9JsonValueNS6_ISA_EEEENS_3mapIS8_SA_NS_4lessIS8_EENS6_INS_4pairIKS8_SA_EEEEEEEEELNS0_6_TraitE1EECI2NS0_6__baseILSM_1EJDnbdS8_SC_SK_EEEILm5EJRSK_EEENS_16in_place_index_tIXT_EEEDpOT0_, symObjAddr: 0x9E94, symBinAddr: 0x10000A47C, symSize: 0x34 }
  - { offset: 0x1A3AD, size: 0x8, addend: 0x0, symName: __ZNSt3__116__variant_detail6__baseILNS0_6_TraitE1EJDnbdNS_12basic_stringIcNS_11char_traitsIcEENS_9allocatorIcEEEENS_6vectorI9JsonValueNS6_ISA_EEEENS_3mapIS8_SA_NS_4lessIS8_EENS6_INS_4pairIKS8_SA_EEEEEEEEC2B8ne180100ILm5EJRSK_EEENS_16in_place_index_tIXT_EEEDpOT0_, symObjAddr: 0x9EC8, symBinAddr: 0x10000A4B0, symSize: 0x3C }
  - { offset: 0x1A407, size: 0x8, addend: 0x0, symName: __ZNSt3__116__variant_detail7__unionILNS0_6_TraitE1ELm0EJDnbdNS_12basic_stringIcNS_11char_traitsIcEENS_9allocatorIcEEEENS_6vectorI9JsonValueNS6_ISA_EEEENS_3mapIS8_SA_NS_4lessIS8_EENS6_INS_4pairIKS8_SA_EEEEEEEEC1B8ne180100ILm5EJRSK_EEENS_16in_place_index_tIXT_EEEDpOT0_, symObjAddr: 0x9F04, symBinAddr: 0x10000A4EC, symSize: 0x34 }
  - { offset: 0x1A461, size: 0x8, addend: 0x0, symName: __ZNSt3__116__variant_detail7__unionILNS0_6_TraitE1ELm0EJDnbdNS_12basic_stringIcNS_11char_traitsIcEENS_9allocatorIcEEEENS_6vectorI9JsonValueNS6_ISA_EEEENS_3mapIS8_SA_NS_4lessIS8_EENS6_INS_4pairIKS8_SA_EEEEEEEEC2B8ne180100ILm5EJRSK_EEENS_16in_place_index_tIXT_EEEDpOT0_, symObjAddr: 0x9F38, symBinAddr: 0x10000A520, symSize: 0x34 }
  - { offset: 0x1A4BB, size: 0x8, addend: 0x0, symName: __ZNSt3__116__variant_detail7__unionILNS0_6_TraitE1ELm1EJbdNS_12basic_stringIcNS_11char_traitsIcEENS_9allocatorIcEEEENS_6vectorI9JsonValueNS6_ISA_EEEENS_3mapIS8_SA_NS_4lessIS8_EENS6_INS_4pairIKS8_SA_EEEEEEEEC1B8ne180100ILm4EJRSK_EEENS_16in_place_index_tIXT_EEEDpOT0_, symObjAddr: 0x9F6C, symBinAddr: 0x10000A554, symSize: 0x34 }
  - { offset: 0x1A515, size: 0x8, addend: 0x0, symName: __ZNSt3__116__variant_detail7__unionILNS0_6_TraitE1ELm1EJbdNS_12basic_stringIcNS_11char_traitsIcEENS_9allocatorIcEEEENS_6vectorI9JsonValueNS6_ISA_EEEENS_3mapIS8_SA_NS_4lessIS8_EENS6_INS_4pairIKS8_SA_EEEEEEEEC2B8ne180100ILm4EJRSK_EEENS_16in_place_index_tIXT_EEEDpOT0_, symObjAddr: 0x9FA0, symBinAddr: 0x10000A588, symSize: 0x34 }
  - { offset: 0x1A56F, size: 0x8, addend: 0x0, symName: __ZNSt3__116__variant_detail7__unionILNS0_6_TraitE1ELm2EJdNS_12basic_stringIcNS_11char_traitsIcEENS_9allocatorIcEEEENS_6vectorI9JsonValueNS6_ISA_EEEENS_3mapIS8_SA_NS_4lessIS8_EENS6_INS_4pairIKS8_SA_EEEEEEEEC1B8ne180100ILm3EJRSK_EEENS_16in_place_index_tIXT_EEEDpOT0_, symObjAddr: 0x9FD4, symBinAddr: 0x10000A5BC, symSize: 0x34 }
  - { offset: 0x1A5C9, size: 0x8, addend: 0x0, symName: __ZNSt3__116__variant_detail7__unionILNS0_6_TraitE1ELm2EJdNS_12basic_stringIcNS_11char_traitsIcEENS_9allocatorIcEEEENS_6vectorI9JsonValueNS6_ISA_EEEENS_3mapIS8_SA_NS_4lessIS8_EENS6_INS_4pairIKS8_SA_EEEEEEEEC2B8ne180100ILm3EJRSK_EEENS_16in_place_index_tIXT_EEEDpOT0_, symObjAddr: 0xA008, symBinAddr: 0x10000A5F0, symSize: 0x34 }
  - { offset: 0x1A623, size: 0x8, addend: 0x0, symName: __ZNSt3__116__variant_detail7__unionILNS0_6_TraitE1ELm3EJNS_12basic_stringIcNS_11char_traitsIcEENS_9allocatorIcEEEENS_6vectorI9JsonValueNS6_ISA_EEEENS_3mapIS8_SA_NS_4lessIS8_EENS6_INS_4pairIKS8_SA_EEEEEEEEC1B8ne180100ILm2EJRSK_EEENS_16in_place_index_tIXT_EEEDpOT0_, symObjAddr: 0xA03C, symBinAddr: 0x10000A624, symSize: 0x34 }
  - { offset: 0x1A67D, size: 0x8, addend: 0x0, symName: __ZNSt3__116__variant_detail7__unionILNS0_6_TraitE1ELm3EJNS_12basic_stringIcNS_11char_traitsIcEENS_9allocatorIcEEEENS_6vectorI9JsonValueNS6_ISA_EEEENS_3mapIS8_SA_NS_4lessIS8_EENS6_INS_4pairIKS8_SA_EEEEEEEEC2B8ne180100ILm2EJRSK_EEENS_16in_place_index_tIXT_EEEDpOT0_, symObjAddr: 0xA070, symBinAddr: 0x10000A658, symSize: 0x34 }
  - { offset: 0x1A6D7, size: 0x8, addend: 0x0, symName: __ZNSt3__116__variant_detail7__unionILNS0_6_TraitE1ELm4EJNS_6vectorI9JsonValueNS_9allocatorIS4_EEEENS_3mapINS_12basic_stringIcNS_11char_traitsIcEENS5_IcEEEES4_NS_4lessISD_EENS5_INS_4pairIKSD_S4_EEEEEEEEC1B8ne180100ILm1EJRSK_EEENS_16in_place_index_tIXT_EEEDpOT0_, symObjAddr: 0xA0A4, symBinAddr: 0x10000A68C, symSize: 0x34 }
  - { offset: 0x1A731, size: 0x8, addend: 0x0, symName: __ZNSt3__116__variant_detail7__unionILNS0_6_TraitE1ELm4EJNS_6vectorI9JsonValueNS_9allocatorIS4_EEEENS_3mapINS_12basic_stringIcNS_11char_traitsIcEENS5_IcEEEES4_NS_4lessISD_EENS5_INS_4pairIKSD_S4_EEEEEEEEC2B8ne180100ILm1EJRSK_EEENS_16in_place_index_tIXT_EEEDpOT0_, symObjAddr: 0xA0D8, symBinAddr: 0x10000A6C0, symSize: 0x34 }
  - { offset: 0x1A78B, size: 0x8, addend: 0x0, symName: __ZNSt3__116__variant_detail7__unionILNS0_6_TraitE1ELm5EJNS_3mapINS_12basic_stringIcNS_11char_traitsIcEENS_9allocatorIcEEEE9JsonValueNS_4lessIS9_EENS7_INS_4pairIKS9_SA_EEEEEEEEC1B8ne180100IJRSH_EEENS_16in_place_index_tILm0EEEDpOT_, symObjAddr: 0xA10C, symBinAddr: 0x10000A6F4, symSize: 0x34 }
  - { offset: 0x1A7DB, size: 0x8, addend: 0x0, symName: __ZNSt3__116__variant_detail7__unionILNS0_6_TraitE1ELm5EJNS_3mapINS_12basic_stringIcNS_11char_traitsIcEENS_9allocatorIcEEEE9JsonValueNS_4lessIS9_EENS7_INS_4pairIKS9_SA_EEEEEEEEC2B8ne180100IJRSH_EEENS_16in_place_index_tILm0EEEDpOT_, symObjAddr: 0xA140, symBinAddr: 0x10000A728, symSize: 0x34 }
  - { offset: 0x1A82B, size: 0x8, addend: 0x0, symName: __ZNSt3__116__variant_detail5__altILm5ENS_3mapINS_12basic_stringIcNS_11char_traitsIcEENS_9allocatorIcEEEE9JsonValueNS_4lessIS8_EENS6_INS_4pairIKS8_S9_EEEEEEEC1B8ne180100IJRSG_EEENS_10in_place_tEDpOT_, symObjAddr: 0xA174, symBinAddr: 0x10000A75C, symSize: 0x34 }
  - { offset: 0x1A87B, size: 0x8, addend: 0x0, symName: __ZNSt3__116__variant_detail5__altILm5ENS_3mapINS_12basic_stringIcNS_11char_traitsIcEENS_9allocatorIcEEEE9JsonValueNS_4lessIS8_EENS6_INS_4pairIKS8_S9_EEEEEEEC2B8ne180100IJRSG_EEENS_10in_place_tEDpOT_, symObjAddr: 0xA1A8, symBinAddr: 0x10000A790, symSize: 0x34 }
  - { offset: 0x1A8CB, size: 0x8, addend: 0x0, symName: __ZNSt3__13mapINS_12basic_stringIcNS_11char_traitsIcEENS_9allocatorIcEEEE9JsonValueNS_4lessIS6_EENS4_INS_4pairIKS6_S7_EEEEED2B8ne180100Ev, symObjAddr: 0xA1DC, symBinAddr: 0x10000A7C4, symSize: 0x2C }
  - { offset: 0x1A8F5, size: 0x8, addend: 0x0, symName: __ZNSt3__16vectorI9JsonValueNS_9allocatorIS1_EEEC1B8ne180100Ev, symObjAddr: 0xA208, symBinAddr: 0x10000A7F0, symSize: 0x2C }
  - { offset: 0x1A91F, size: 0x8, addend: 0x0, symName: __ZNSt3__16vectorI9JsonValueNS_9allocatorIS1_EEE9push_backB8ne180100EOS1_, symObjAddr: 0xA234, symBinAddr: 0x10000A81C, symSize: 0x90 }
  - { offset: 0x1A965, size: 0x8, addend: 0x0, symName: __ZN9JsonValueCI1NSt3__17variantIJDnbdNS0_12basic_stringIcNS0_11char_traitsIcEENS0_9allocatorIcEEEENS0_6vectorIS_NS5_IS_EEEENS0_3mapIS7_S_NS0_4lessIS7_EENS5_INS0_4pairIKS7_S_EEEEEEEEEIRSA_Li0ELi0ELi0ESA_Lm4ELi0EEEOT_, symObjAddr: 0xA2C4, symBinAddr: 0x10000A8AC, symSize: 0x34 }
  - { offset: 0x1A99A, size: 0x8, addend: 0x0, symName: __ZNSt3__16vectorI9JsonValueNS_9allocatorIS1_EEEC2B8ne180100Ev, symObjAddr: 0xA2F8, symBinAddr: 0x10000A8E0, symSize: 0x4C }
  - { offset: 0x1A9C4, size: 0x8, addend: 0x0, symName: __ZNSt3__117__compressed_pairIP9JsonValueNS_9allocatorIS1_EEEC1B8ne180100IDnNS_18__default_init_tagEEEOT_OT0_, symObjAddr: 0xA344, symBinAddr: 0x10000A92C, symSize: 0x3C }
  - { offset: 0x1AA1C, size: 0x8, addend: 0x0, symName: __ZNSt3__117__compressed_pairIP9JsonValueNS_9allocatorIS1_EEEC2B8ne180100IDnNS_18__default_init_tagEEEOT_OT0_, symObjAddr: 0xA380, symBinAddr: 0x10000A968, symSize: 0x40 }
  - { offset: 0x1AA74, size: 0x8, addend: 0x0, symName: __ZNSt3__122__compressed_pair_elemINS_9allocatorI9JsonValueEELi1ELb1EEC2B8ne180100ENS_18__default_init_tagE, symObjAddr: 0xA3C0, symBinAddr: 0x10000A9A8, symSize: 0x2C }
  - { offset: 0x1AAA8, size: 0x8, addend: 0x0, symName: __ZNSt3__19allocatorI9JsonValueEC2B8ne180100Ev, symObjAddr: 0xA3EC, symBinAddr: 0x10000A9D4, symSize: 0x2C }
  - { offset: 0x1AAD2, size: 0x8, addend: 0x0, symName: __ZNSt3__116__non_trivial_ifILb1ENS_9allocatorI9JsonValueEEEC2B8ne180100Ev, symObjAddr: 0xA418, symBinAddr: 0x10000AA00, symSize: 0x14 }
  - { offset: 0x1AB02, size: 0x8, addend: 0x0, symName: __ZNSt3__16vectorI9JsonValueNS_9allocatorIS1_EEE22__construct_one_at_endB8ne180100IJS1_EEEvDpOT_, symObjAddr: 0xA42C, symBinAddr: 0x10000AA14, symSize: 0x90 }
  - { offset: 0x1AB51, size: 0x8, addend: 0x0, symName: __ZNSt3__16vectorI9JsonValueNS_9allocatorIS1_EEE21__push_back_slow_pathIS1_EEPS1_OT_, symObjAddr: 0xA4BC, symBinAddr: 0x10000AAA4, symSize: 0xE8 }
  - { offset: 0x1ABAF, size: 0x8, addend: 0x0, symName: __ZNSt3__116allocator_traitsINS_9allocatorI9JsonValueEEE9constructB8ne180100IS2_JS2_EvEEvRS3_PT_DpOT0_, symObjAddr: 0xA5A4, symBinAddr: 0x10000AB8C, symSize: 0x34 }
  - { offset: 0x1AC06, size: 0x8, addend: 0x0, symName: __ZNSt3__19allocatorI9JsonValueE9constructB8ne180100IS1_JS1_EEEvPT_DpOT0_, symObjAddr: 0xA5D8, symBinAddr: 0x10000ABC0, symSize: 0x30 }
  - { offset: 0x1AC5C, size: 0x8, addend: 0x0, symName: __ZN9JsonValueC1EOS_, symObjAddr: 0xA608, symBinAddr: 0x10000ABF0, symSize: 0x34 }
  - { offset: 0x1AC91, size: 0x8, addend: 0x0, symName: __ZN9JsonValueC2EOS_, symObjAddr: 0xA63C, symBinAddr: 0x10000AC24, symSize: 0x34 }
  - { offset: 0x1ACC6, size: 0x8, addend: 0x0, symName: __ZNSt3__17variantIJDnbdNS_12basic_stringIcNS_11char_traitsIcEENS_9allocatorIcEEEENS_6vectorI9JsonValueNS4_IS8_EEEENS_3mapIS6_S8_NS_4lessIS6_EENS4_INS_4pairIKS6_S8_EEEEEEEEC2B8ne180100EOSJ_, symObjAddr: 0xA670, symBinAddr: 0x10000AC58, symSize: 0x34 }
  - { offset: 0x1ACFC, size: 0x8, addend: 0x0, symName: __ZNSt3__116__variant_detail6__implIJDnbdNS_12basic_stringIcNS_11char_traitsIcEENS_9allocatorIcEEEENS_6vectorI9JsonValueNS5_IS9_EEEENS_3mapIS7_S9_NS_4lessIS7_EENS5_INS_4pairIKS7_S9_EEEEEEEEC1B8ne180100EOSK_, symObjAddr: 0xA6A4, symBinAddr: 0x10000AC8C, symSize: 0x34 }
  - { offset: 0x1AD32, size: 0x8, addend: 0x0, symName: __ZNSt3__116__variant_detail6__implIJDnbdNS_12basic_stringIcNS_11char_traitsIcEENS_9allocatorIcEEEENS_6vectorI9JsonValueNS5_IS9_EEEENS_3mapIS7_S9_NS_4lessIS7_EENS5_INS_4pairIKS7_S9_EEEEEEEEC2B8ne180100EOSK_, symObjAddr: 0xA6D8, symBinAddr: 0x10000ACC0, symSize: 0x34 }
  - { offset: 0x1AD68, size: 0x8, addend: 0x0, symName: __ZNSt3__116__variant_detail17__copy_assignmentINS0_8__traitsIJDnbdNS_12basic_stringIcNS_11char_traitsIcEENS_9allocatorIcEEEENS_6vectorI9JsonValueNS6_ISA_EEEENS_3mapIS8_SA_NS_4lessIS8_EENS6_INS_4pairIKS8_SA_EEEEEEEEELNS0_6_TraitE1EEC2EOSN_, symObjAddr: 0xA70C, symBinAddr: 0x10000ACF4, symSize: 0x34 }
  - { offset: 0x1AD9E, size: 0x8, addend: 0x0, symName: __ZNSt3__116__variant_detail17__move_assignmentINS0_8__traitsIJDnbdNS_12basic_stringIcNS_11char_traitsIcEENS_9allocatorIcEEEENS_6vectorI9JsonValueNS6_ISA_EEEENS_3mapIS8_SA_NS_4lessIS8_EENS6_INS_4pairIKS8_SA_EEEEEEEEELNS0_6_TraitE1EEC2EOSN_, symObjAddr: 0xA740, symBinAddr: 0x10000AD28, symSize: 0x34 }
  - { offset: 0x1ADDA, size: 0x8, addend: 0x0, symName: __ZNSt3__116__variant_detail12__assignmentINS0_8__traitsIJDnbdNS_12basic_stringIcNS_11char_traitsIcEENS_9allocatorIcEEEENS_6vectorI9JsonValueNS6_ISA_EEEENS_3mapIS8_SA_NS_4lessIS8_EENS6_INS_4pairIKS8_SA_EEEEEEEEEEC2EOSM_, symObjAddr: 0xA774, symBinAddr: 0x10000AD5C, symSize: 0x34 }
  - { offset: 0x1AE10, size: 0x8, addend: 0x0, symName: __ZNSt3__116__variant_detail18__copy_constructorINS0_8__traitsIJDnbdNS_12basic_stringIcNS_11char_traitsIcEENS_9allocatorIcEEEENS_6vectorI9JsonValueNS6_ISA_EEEENS_3mapIS8_SA_NS_4lessIS8_EENS6_INS_4pairIKS8_SA_EEEEEEEEELNS0_6_TraitE1EEC2EOSN_, symObjAddr: 0xA7A8, symBinAddr: 0x10000AD90, symSize: 0x34 }
  - { offset: 0x1AE46, size: 0x8, addend: 0x0, symName: __ZNSt3__116__variant_detail18__move_constructorINS0_8__traitsIJDnbdNS_12basic_stringIcNS_11char_traitsIcEENS_9allocatorIcEEEENS_6vectorI9JsonValueNS6_ISA_EEEENS_3mapIS8_SA_NS_4lessIS8_EENS6_INS_4pairIKS8_SA_EEEEEEEEELNS0_6_TraitE1EEC2EOSN_, symObjAddr: 0xA7DC, symBinAddr: 0x10000ADC4, symSize: 0x44 }
  - { offset: 0x1AE7F, size: 0x8, addend: 0x0, symName: __ZNSt3__116__variant_detail6__ctorINS0_8__traitsIJDnbdNS_12basic_stringIcNS_11char_traitsIcEENS_9allocatorIcEEEENS_6vectorI9JsonValueNS6_ISA_EEEENS_3mapIS8_SA_NS_4lessIS8_EENS6_INS_4pairIKS8_SA_EEEEEEEEEE19__generic_constructB8ne180100INS0_18__move_constructorISL_LNS0_6_TraitE1EEEEEvRSM_OT_, symObjAddr: 0xA820, symBinAddr: 0x10000AE08, symSize: 0x68 }
  - { offset: 0x1AFE8, size: 0x8, addend: 0x0, symName: __ZNSt3__116__variant_detail12__visitation6__base14__visit_alt_atB8ne180100IZNS0_6__ctorINS0_8__traitsIJDnbdNS_12basic_stringIcNS_11char_traitsIcEENS_9allocatorIcEEEENS_6vectorI9JsonValueNS9_ISD_EEEENS_3mapISB_SD_NS_4lessISB_EENS9_INS_4pairIKSB_SD_EEEEEEEEEE19__generic_constructB8ne180100INS0_18__move_constructorISO_LNS0_6_TraitE1EEEEEvRSP_OT_EUlRSV_OT0_E_JSU_ST_EEEDcmSW_DpOT0_, symObjAddr: 0xA888, symBinAddr: 0x10000AE70, symSize: 0x84 }
  - { offset: 0x1B067, size: 0x8, addend: 0x0, symName: __ZNSt3__116__variant_detail12__visitation6__base12__dispatcherIJLm0ELm0EEE10__dispatchB8ne180100IOZNS0_6__ctorINS0_8__traitsIJDnbdNS_12basic_stringIcNS_11char_traitsIcEENS_9allocatorIcEEEENS_6vectorI9JsonValueNSB_ISF_EEEENS_3mapISD_SF_NS_4lessISD_EENSB_INS_4pairIKSD_SF_EEEEEEEEEE19__generic_constructB8ne180100INS0_18__move_constructorISQ_LNS0_6_TraitE1EEEEEvRSR_OT_EUlRSX_OT0_E_JRNS0_6__baseILSU_1EJDnbdSD_SH_SP_EEEOS15_EEEDcSX_DpT0_, symObjAddr: 0xA90C, symBinAddr: 0x10000AEF4, symSize: 0x50 }
  - { offset: 0x1B0C2, size: 0x8, addend: 0x0, symName: __ZNSt3__116__variant_detail12__visitation6__base12__dispatcherIJLm1ELm1EEE10__dispatchB8ne180100IOZNS0_6__ctorINS0_8__traitsIJDnbdNS_12basic_stringIcNS_11char_traitsIcEENS_9allocatorIcEEEENS_6vectorI9JsonValueNSB_ISF_EEEENS_3mapISD_SF_NS_4lessISD_EENSB_INS_4pairIKSD_SF_EEEEEEEEEE19__generic_constructB8ne180100INS0_18__move_constructorISQ_LNS0_6_TraitE1EEEEEvRSR_OT_EUlRSX_OT0_E_JRNS0_6__baseILSU_1EJDnbdSD_SH_SP_EEEOS15_EEEDcSX_DpT0_, symObjAddr: 0xA95C, symBinAddr: 0x10000AF44, symSize: 0x50 }
  - { offset: 0x1B11D, size: 0x8, addend: 0x0, symName: __ZNSt3__116__variant_detail12__visitation6__base12__dispatcherIJLm2ELm2EEE10__dispatchB8ne180100IOZNS0_6__ctorINS0_8__traitsIJDnbdNS_12basic_stringIcNS_11char_traitsIcEENS_9allocatorIcEEEENS_6vectorI9JsonValueNSB_ISF_EEEENS_3mapISD_SF_NS_4lessISD_EENSB_INS_4pairIKSD_SF_EEEEEEEEEE19__generic_constructB8ne180100INS0_18__move_constructorISQ_LNS0_6_TraitE1EEEEEvRSR_OT_EUlRSX_OT0_E_JRNS0_6__baseILSU_1EJDnbdSD_SH_SP_EEEOS15_EEEDcSX_DpT0_, symObjAddr: 0xA9AC, symBinAddr: 0x10000AF94, symSize: 0x50 }
  - { offset: 0x1B178, size: 0x8, addend: 0x0, symName: __ZNSt3__116__variant_detail12__visitation6__base12__dispatcherIJLm3ELm3EEE10__dispatchB8ne180100IOZNS0_6__ctorINS0_8__traitsIJDnbdNS_12basic_stringIcNS_11char_traitsIcEENS_9allocatorIcEEEENS_6vectorI9JsonValueNSB_ISF_EEEENS_3mapISD_SF_NS_4lessISD_EENSB_INS_4pairIKSD_SF_EEEEEEEEEE19__generic_constructB8ne180100INS0_18__move_constructorISQ_LNS0_6_TraitE1EEEEEvRSR_OT_EUlRSX_OT0_E_JRNS0_6__baseILSU_1EJDnbdSD_SH_SP_EEEOS15_EEEDcSX_DpT0_, symObjAddr: 0xA9FC, symBinAddr: 0x10000AFE4, symSize: 0x50 }
  - { offset: 0x1B1D3, size: 0x8, addend: 0x0, symName: __ZNSt3__116__variant_detail12__visitation6__base12__dispatcherIJLm4ELm4EEE10__dispatchB8ne180100IOZNS0_6__ctorINS0_8__traitsIJDnbdNS_12basic_stringIcNS_11char_traitsIcEENS_9allocatorIcEEEENS_6vectorI9JsonValueNSB_ISF_EEEENS_3mapISD_SF_NS_4lessISD_EENSB_INS_4pairIKSD_SF_EEEEEEEEEE19__generic_constructB8ne180100INS0_18__move_constructorISQ_LNS0_6_TraitE1EEEEEvRSR_OT_EUlRSX_OT0_E_JRNS0_6__baseILSU_1EJDnbdSD_SH_SP_EEEOS15_EEEDcSX_DpT0_, symObjAddr: 0xAA4C, symBinAddr: 0x10000B034, symSize: 0x50 }
  - { offset: 0x1B22E, size: 0x8, addend: 0x0, symName: __ZNSt3__116__variant_detail12__visitation6__base12__dispatcherIJLm5ELm5EEE10__dispatchB8ne180100IOZNS0_6__ctorINS0_8__traitsIJDnbdNS_12basic_stringIcNS_11char_traitsIcEENS_9allocatorIcEEEENS_6vectorI9JsonValueNSB_ISF_EEEENS_3mapISD_SF_NS_4lessISD_EENSB_INS_4pairIKSD_SF_EEEEEEEEEE19__generic_constructB8ne180100INS0_18__move_constructorISQ_LNS0_6_TraitE1EEEEEvRSR_OT_EUlRSX_OT0_E_JRNS0_6__baseILSU_1EJDnbdSD_SH_SP_EEEOS15_EEEDcSX_DpT0_, symObjAddr: 0xAA9C, symBinAddr: 0x10000B084, symSize: 0x50 }
  - { offset: 0x1B2C5, size: 0x8, addend: 0x0, symName: __ZNKSt3__18__farrayIPFvOZNS_16__variant_detail6__ctorINS1_8__traitsIJDnbdNS_12basic_stringIcNS_11char_traitsIcEENS_9allocatorIcEEEENS_6vectorI9JsonValueNS7_ISB_EEEENS_3mapIS9_SB_NS_4lessIS9_EENS7_INS_4pairIKS9_SB_EEEEEEEEEE19__generic_constructB8ne180100INS1_18__move_constructorISM_LNS1_6_TraitE1EEEEEvRSN_OT_EUlRST_OT0_E_RNS1_6__baseILSQ_1EJDnbdS9_SD_SL_EEEOS11_ELm6EEixB8ne180100Em, symObjAddr: 0xAAEC, symBinAddr: 0x10000B0D4, symSize: 0x20 }
  - { offset: 0x1B300, size: 0x8, addend: 0x0, symName: __ZNOSt3__116__variant_detail6__baseILNS0_6_TraitE1EJDnbdNS_12basic_stringIcNS_11char_traitsIcEENS_9allocatorIcEEEENS_6vectorI9JsonValueNS6_ISA_EEEENS_3mapIS8_SA_NS_4lessIS8_EENS6_INS_4pairIKS8_SA_EEEEEEEE9__as_baseB8ne180100Ev, symObjAddr: 0xAB0C, symBinAddr: 0x10000B0F4, symSize: 0x14 }
  - { offset: 0x1B32C, size: 0x8, addend: 0x0, symName: __ZNSt3__116__variant_detail8__access6__base9__get_altB8ne180100ILm0ENS0_6__baseILNS0_6_TraitE1EJDnbdNS_12basic_stringIcNS_11char_traitsIcEENS_9allocatorIcEEEENS_6vectorI9JsonValueNS9_ISD_EEEENS_3mapISB_SD_NS_4lessISB_EENS9_INS_4pairIKSB_SD_EEEEEEEEEEEODaOT0_, symObjAddr: 0xAB54, symBinAddr: 0x10000B13C, symSize: 0x24 }
  - { offset: 0x1B36E, size: 0x8, addend: 0x0, symName: __ZZNSt3__116__variant_detail6__ctorINS0_8__traitsIJDnbdNS_12basic_stringIcNS_11char_traitsIcEENS_9allocatorIcEEEENS_6vectorI9JsonValueNS6_ISA_EEEENS_3mapIS8_SA_NS_4lessIS8_EENS6_INS_4pairIKS8_SA_EEEEEEEEEE19__generic_constructB8ne180100INS0_18__move_constructorISL_LNS0_6_TraitE1EEEEEvRSM_OT_ENKUlRSS_OT0_E_clINS0_5__altILm0EDnEES10_EEDaSU_SW_, symObjAddr: 0xAB78, symBinAddr: 0x10000B160, symSize: 0x30 }
  - { offset: 0x1B3C8, size: 0x8, addend: 0x0, symName: __ZNSt3__116__variant_detail6__ctorINS0_8__traitsIJDnbdNS_12basic_stringIcNS_11char_traitsIcEENS_9allocatorIcEEEENS_6vectorI9JsonValueNS6_ISA_EEEENS_3mapIS8_SA_NS_4lessIS8_EENS6_INS_4pairIKS8_SA_EEEEEEEEEE15__construct_altB8ne180100ILm0EDnJDnEEERT0_RNS0_5__altIXT_ESO_EEDpOT1_, symObjAddr: 0xABA8, symBinAddr: 0x10000B190, symSize: 0x30 }
  - { offset: 0x1B419, size: 0x8, addend: 0x0, symName: __ZNSt3__116__variant_detail5__altILm0EDnEC1B8ne180100IJDnEEENS_10in_place_tEDpOT_, symObjAddr: 0xABD8, symBinAddr: 0x10000B1C0, symSize: 0x34 }
  - { offset: 0x1B469, size: 0x8, addend: 0x0, symName: __ZNSt3__116__variant_detail5__altILm0EDnEC2B8ne180100IJDnEEENS_10in_place_tEDpOT_, symObjAddr: 0xAC0C, symBinAddr: 0x10000B1F4, symSize: 0x1C }
  - { offset: 0x1B4B9, size: 0x8, addend: 0x0, symName: __ZNSt3__116__variant_detail8__access7__union9__get_altB8ne180100INS0_7__unionILNS0_6_TraitE1ELm0EJDnbdNS_12basic_stringIcNS_11char_traitsIcEENS_9allocatorIcEEEENS_6vectorI9JsonValueNS9_ISD_EEEENS_3mapISB_SD_NS_4lessISB_EENS9_INS_4pairIKSB_SD_EEEEEEEEEEEODaOT_NS_16in_place_index_tILm0EEE, symObjAddr: 0xAC28, symBinAddr: 0x10000B210, symSize: 0x14 }
  - { offset: 0x1B4F8, size: 0x8, addend: 0x0, symName: __ZNSt3__116__variant_detail8__access6__base9__get_altB8ne180100ILm1ENS0_6__baseILNS0_6_TraitE1EJDnbdNS_12basic_stringIcNS_11char_traitsIcEENS_9allocatorIcEEEENS_6vectorI9JsonValueNS9_ISD_EEEENS_3mapISB_SD_NS_4lessISB_EENS9_INS_4pairIKSB_SD_EEEEEEEEEEEODaOT0_, symObjAddr: 0xAC70, symBinAddr: 0x10000B258, symSize: 0x24 }
  - { offset: 0x1B52F, size: 0x8, addend: 0x0, symName: __ZZNSt3__116__variant_detail6__ctorINS0_8__traitsIJDnbdNS_12basic_stringIcNS_11char_traitsIcEENS_9allocatorIcEEEENS_6vectorI9JsonValueNS6_ISA_EEEENS_3mapIS8_SA_NS_4lessIS8_EENS6_INS_4pairIKS8_SA_EEEEEEEEEE19__generic_constructB8ne180100INS0_18__move_constructorISL_LNS0_6_TraitE1EEEEEvRSM_OT_ENKUlRSS_OT0_E_clINS0_5__altILm1EbEES10_EEDaSU_SW_, symObjAddr: 0xAC94, symBinAddr: 0x10000B27C, symSize: 0x30 }
  - { offset: 0x1B589, size: 0x8, addend: 0x0, symName: __ZNSt3__116__variant_detail6__ctorINS0_8__traitsIJDnbdNS_12basic_stringIcNS_11char_traitsIcEENS_9allocatorIcEEEENS_6vectorI9JsonValueNS6_ISA_EEEENS_3mapIS8_SA_NS_4lessIS8_EENS6_INS_4pairIKS8_SA_EEEEEEEEEE15__construct_altB8ne180100ILm1EbJbEEERT0_RNS0_5__altIXT_ESO_EEDpOT1_, symObjAddr: 0xACC4, symBinAddr: 0x10000B2AC, symSize: 0x30 }
  - { offset: 0x1B5DA, size: 0x8, addend: 0x0, symName: __ZNSt3__116__variant_detail5__altILm1EbEC1B8ne180100IJbEEENS_10in_place_tEDpOT_, symObjAddr: 0xACF4, symBinAddr: 0x10000B2DC, symSize: 0x34 }
  - { offset: 0x1B62A, size: 0x8, addend: 0x0, symName: __ZNSt3__116__variant_detail5__altILm1EbEC2B8ne180100IJbEEENS_10in_place_tEDpOT_, symObjAddr: 0xAD28, symBinAddr: 0x10000B310, symSize: 0x28 }
  - { offset: 0x1B67A, size: 0x8, addend: 0x0, symName: __ZNSt3__116__variant_detail8__access7__union9__get_altB8ne180100INS0_7__unionILNS0_6_TraitE1ELm0EJDnbdNS_12basic_stringIcNS_11char_traitsIcEENS_9allocatorIcEEEENS_6vectorI9JsonValueNS9_ISD_EEEENS_3mapISB_SD_NS_4lessISB_EENS9_INS_4pairIKSB_SD_EEEEEEEEELm1EEEODaOT_NS_16in_place_index_tIXT0_EEE, symObjAddr: 0xAD50, symBinAddr: 0x10000B338, symSize: 0x24 }
  - { offset: 0x1B6BD, size: 0x8, addend: 0x0, symName: __ZNSt3__116__variant_detail8__access7__union9__get_altB8ne180100INS0_7__unionILNS0_6_TraitE1ELm1EJbdNS_12basic_stringIcNS_11char_traitsIcEENS_9allocatorIcEEEENS_6vectorI9JsonValueNS9_ISD_EEEENS_3mapISB_SD_NS_4lessISB_EENS9_INS_4pairIKSB_SD_EEEEEEEEEEEODaOT_NS_16in_place_index_tILm0EEE, symObjAddr: 0xAD74, symBinAddr: 0x10000B35C, symSize: 0x14 }
  - { offset: 0x1B6FC, size: 0x8, addend: 0x0, symName: __ZNSt3__116__variant_detail8__access6__base9__get_altB8ne180100ILm2ENS0_6__baseILNS0_6_TraitE1EJDnbdNS_12basic_stringIcNS_11char_traitsIcEENS_9allocatorIcEEEENS_6vectorI9JsonValueNS9_ISD_EEEENS_3mapISB_SD_NS_4lessISB_EENS9_INS_4pairIKSB_SD_EEEEEEEEEEEODaOT0_, symObjAddr: 0xADBC, symBinAddr: 0x10000B3A4, symSize: 0x24 }
  - { offset: 0x1B733, size: 0x8, addend: 0x0, symName: __ZZNSt3__116__variant_detail6__ctorINS0_8__traitsIJDnbdNS_12basic_stringIcNS_11char_traitsIcEENS_9allocatorIcEEEENS_6vectorI9JsonValueNS6_ISA_EEEENS_3mapIS8_SA_NS_4lessIS8_EENS6_INS_4pairIKS8_SA_EEEEEEEEEE19__generic_constructB8ne180100INS0_18__move_constructorISL_LNS0_6_TraitE1EEEEEvRSM_OT_ENKUlRSS_OT0_E_clINS0_5__altILm2EdEES10_EEDaSU_SW_, symObjAddr: 0xADE0, symBinAddr: 0x10000B3C8, symSize: 0x30 }
  - { offset: 0x1B793, size: 0x8, addend: 0x0, symName: __ZNSt3__116__variant_detail6__ctorINS0_8__traitsIJDnbdNS_12basic_stringIcNS_11char_traitsIcEENS_9allocatorIcEEEENS_6vectorI9JsonValueNS6_ISA_EEEENS_3mapIS8_SA_NS_4lessIS8_EENS6_INS_4pairIKS8_SA_EEEEEEEEEE15__construct_altB8ne180100ILm2EdJdEEERT0_RNS0_5__altIXT_ESO_EEDpOT1_, symObjAddr: 0xAE10, symBinAddr: 0x10000B3F8, symSize: 0x30 }
  - { offset: 0x1B7E4, size: 0x8, addend: 0x0, symName: __ZNSt3__116__variant_detail5__altILm2EdEC1B8ne180100IJdEEENS_10in_place_tEDpOT_, symObjAddr: 0xAE40, symBinAddr: 0x10000B428, symSize: 0x34 }
  - { offset: 0x1B834, size: 0x8, addend: 0x0, symName: __ZNSt3__116__variant_detail5__altILm2EdEC2B8ne180100IJdEEENS_10in_place_tEDpOT_, symObjAddr: 0xAE74, symBinAddr: 0x10000B45C, symSize: 0x24 }
  - { offset: 0x1B884, size: 0x8, addend: 0x0, symName: __ZNSt3__116__variant_detail8__access7__union9__get_altB8ne180100INS0_7__unionILNS0_6_TraitE1ELm0EJDnbdNS_12basic_stringIcNS_11char_traitsIcEENS_9allocatorIcEEEENS_6vectorI9JsonValueNS9_ISD_EEEENS_3mapISB_SD_NS_4lessISB_EENS9_INS_4pairIKSB_SD_EEEEEEEEELm2EEEODaOT_NS_16in_place_index_tIXT0_EEE, symObjAddr: 0xAE98, symBinAddr: 0x10000B480, symSize: 0x24 }
  - { offset: 0x1B8C7, size: 0x8, addend: 0x0, symName: __ZNSt3__116__variant_detail8__access7__union9__get_altB8ne180100INS0_7__unionILNS0_6_TraitE1ELm1EJbdNS_12basic_stringIcNS_11char_traitsIcEENS_9allocatorIcEEEENS_6vectorI9JsonValueNS9_ISD_EEEENS_3mapISB_SD_NS_4lessISB_EENS9_INS_4pairIKSB_SD_EEEEEEEEELm1EEEODaOT_NS_16in_place_index_tIXT0_EEE, symObjAddr: 0xAEBC, symBinAddr: 0x10000B4A4, symSize: 0x24 }
  - { offset: 0x1B90A, size: 0x8, addend: 0x0, symName: __ZNSt3__116__variant_detail8__access7__union9__get_altB8ne180100INS0_7__unionILNS0_6_TraitE1ELm2EJdNS_12basic_stringIcNS_11char_traitsIcEENS_9allocatorIcEEEENS_6vectorI9JsonValueNS9_ISD_EEEENS_3mapISB_SD_NS_4lessISB_EENS9_INS_4pairIKSB_SD_EEEEEEEEEEEODaOT_NS_16in_place_index_tILm0EEE, symObjAddr: 0xAEE0, symBinAddr: 0x10000B4C8, symSize: 0x14 }
  - { offset: 0x1B949, size: 0x8, addend: 0x0, symName: __ZNSt3__116__variant_detail8__access6__base9__get_altB8ne180100ILm3ENS0_6__baseILNS0_6_TraitE1EJDnbdNS_12basic_stringIcNS_11char_traitsIcEENS_9allocatorIcEEEENS_6vectorI9JsonValueNS9_ISD_EEEENS_3mapISB_SD_NS_4lessISB_EENS9_INS_4pairIKSB_SD_EEEEEEEEEEEODaOT0_, symObjAddr: 0xAF28, symBinAddr: 0x10000B510, symSize: 0x24 }
  - { offset: 0x1B980, size: 0x8, addend: 0x0, symName: __ZZNSt3__116__variant_detail6__ctorINS0_8__traitsIJDnbdNS_12basic_stringIcNS_11char_traitsIcEENS_9allocatorIcEEEENS_6vectorI9JsonValueNS6_ISA_EEEENS_3mapIS8_SA_NS_4lessIS8_EENS6_INS_4pairIKS8_SA_EEEEEEEEEE19__generic_constructB8ne180100INS0_18__move_constructorISL_LNS0_6_TraitE1EEEEEvRSM_OT_ENKUlRSS_OT0_E_clINS0_5__altILm3ES8_EES10_EEDaSU_SW_, symObjAddr: 0xAF4C, symBinAddr: 0x10000B534, symSize: 0x30 }
  - { offset: 0x1B9DA, size: 0x8, addend: 0x0, symName: __ZNSt3__116__variant_detail8__access7__union9__get_altB8ne180100INS0_7__unionILNS0_6_TraitE1ELm0EJDnbdNS_12basic_stringIcNS_11char_traitsIcEENS_9allocatorIcEEEENS_6vectorI9JsonValueNS9_ISD_EEEENS_3mapISB_SD_NS_4lessISB_EENS9_INS_4pairIKSB_SD_EEEEEEEEELm3EEEODaOT_NS_16in_place_index_tIXT0_EEE, symObjAddr: 0xAF7C, symBinAddr: 0x10000B564, symSize: 0x24 }
  - { offset: 0x1BA1D, size: 0x8, addend: 0x0, symName: __ZNSt3__116__variant_detail8__access7__union9__get_altB8ne180100INS0_7__unionILNS0_6_TraitE1ELm1EJbdNS_12basic_stringIcNS_11char_traitsIcEENS_9allocatorIcEEEENS_6vectorI9JsonValueNS9_ISD_EEEENS_3mapISB_SD_NS_4lessISB_EENS9_INS_4pairIKSB_SD_EEEEEEEEELm2EEEODaOT_NS_16in_place_index_tIXT0_EEE, symObjAddr: 0xAFA0, symBinAddr: 0x10000B588, symSize: 0x24 }
  - { offset: 0x1BA60, size: 0x8, addend: 0x0, symName: __ZNSt3__116__variant_detail8__access7__union9__get_altB8ne180100INS0_7__unionILNS0_6_TraitE1ELm2EJdNS_12basic_stringIcNS_11char_traitsIcEENS_9allocatorIcEEEENS_6vectorI9JsonValueNS9_ISD_EEEENS_3mapISB_SD_NS_4lessISB_EENS9_INS_4pairIKSB_SD_EEEEEEEEELm1EEEODaOT_NS_16in_place_index_tIXT0_EEE, symObjAddr: 0xAFC4, symBinAddr: 0x10000B5AC, symSize: 0x24 }
  - { offset: 0x1BAA3, size: 0x8, addend: 0x0, symName: __ZNSt3__116__variant_detail8__access7__union9__get_altB8ne180100INS0_7__unionILNS0_6_TraitE1ELm3EJNS_12basic_stringIcNS_11char_traitsIcEENS_9allocatorIcEEEENS_6vectorI9JsonValueNS9_ISD_EEEENS_3mapISB_SD_NS_4lessISB_EENS9_INS_4pairIKSB_SD_EEEEEEEEEEEODaOT_NS_16in_place_index_tILm0EEE, symObjAddr: 0xAFE8, symBinAddr: 0x10000B5D0, symSize: 0x14 }
  - { offset: 0x1BAE2, size: 0x8, addend: 0x0, symName: __ZNSt3__116__variant_detail8__access6__base9__get_altB8ne180100ILm4ENS0_6__baseILNS0_6_TraitE1EJDnbdNS_12basic_stringIcNS_11char_traitsIcEENS_9allocatorIcEEEENS_6vectorI9JsonValueNS9_ISD_EEEENS_3mapISB_SD_NS_4lessISB_EENS9_INS_4pairIKSB_SD_EEEEEEEEEEEODaOT0_, symObjAddr: 0xB030, symBinAddr: 0x10000B618, symSize: 0x24 }
  - { offset: 0x1BB19, size: 0x8, addend: 0x0, symName: __ZZNSt3__116__variant_detail6__ctorINS0_8__traitsIJDnbdNS_12basic_stringIcNS_11char_traitsIcEENS_9allocatorIcEEEENS_6vectorI9JsonValueNS6_ISA_EEEENS_3mapIS8_SA_NS_4lessIS8_EENS6_INS_4pairIKS8_SA_EEEEEEEEEE19__generic_constructB8ne180100INS0_18__move_constructorISL_LNS0_6_TraitE1EEEEEvRSM_OT_ENKUlRSS_OT0_E_clINS0_5__altILm4ESC_EES10_EEDaSU_SW_, symObjAddr: 0xB054, symBinAddr: 0x10000B63C, symSize: 0x30 }
  - { offset: 0x1BB73, size: 0x8, addend: 0x0, symName: __ZNSt3__116__variant_detail8__access7__union9__get_altB8ne180100INS0_7__unionILNS0_6_TraitE1ELm0EJDnbdNS_12basic_stringIcNS_11char_traitsIcEENS_9allocatorIcEEEENS_6vectorI9JsonValueNS9_ISD_EEEENS_3mapISB_SD_NS_4lessISB_EENS9_INS_4pairIKSB_SD_EEEEEEEEELm4EEEODaOT_NS_16in_place_index_tIXT0_EEE, symObjAddr: 0xB084, symBinAddr: 0x10000B66C, symSize: 0x24 }
  - { offset: 0x1BBB6, size: 0x8, addend: 0x0, symName: __ZNSt3__116__variant_detail8__access7__union9__get_altB8ne180100INS0_7__unionILNS0_6_TraitE1ELm1EJbdNS_12basic_stringIcNS_11char_traitsIcEENS_9allocatorIcEEEENS_6vectorI9JsonValueNS9_ISD_EEEENS_3mapISB_SD_NS_4lessISB_EENS9_INS_4pairIKSB_SD_EEEEEEEEELm3EEEODaOT_NS_16in_place_index_tIXT0_EEE, symObjAddr: 0xB0A8, symBinAddr: 0x10000B690, symSize: 0x24 }
  - { offset: 0x1BBF9, size: 0x8, addend: 0x0, symName: __ZNSt3__116__variant_detail8__access7__union9__get_altB8ne180100INS0_7__unionILNS0_6_TraitE1ELm2EJdNS_12basic_stringIcNS_11char_traitsIcEENS_9allocatorIcEEEENS_6vectorI9JsonValueNS9_ISD_EEEENS_3mapISB_SD_NS_4lessISB_EENS9_INS_4pairIKSB_SD_EEEEEEEEELm2EEEODaOT_NS_16in_place_index_tIXT0_EEE, symObjAddr: 0xB0CC, symBinAddr: 0x10000B6B4, symSize: 0x24 }
  - { offset: 0x1BC3C, size: 0x8, addend: 0x0, symName: __ZNSt3__116__variant_detail8__access7__union9__get_altB8ne180100INS0_7__unionILNS0_6_TraitE1ELm3EJNS_12basic_stringIcNS_11char_traitsIcEENS_9allocatorIcEEEENS_6vectorI9JsonValueNS9_ISD_EEEENS_3mapISB_SD_NS_4lessISB_EENS9_INS_4pairIKSB_SD_EEEEEEEEELm1EEEODaOT_NS_16in_place_index_tIXT0_EEE, symObjAddr: 0xB0F0, symBinAddr: 0x10000B6D8, symSize: 0x24 }
  - { offset: 0x1BC7F, size: 0x8, addend: 0x0, symName: __ZNSt3__116__variant_detail8__access7__union9__get_altB8ne180100INS0_7__unionILNS0_6_TraitE1ELm4EJNS_6vectorI9JsonValueNS_9allocatorIS7_EEEENS_3mapINS_12basic_stringIcNS_11char_traitsIcEENS8_IcEEEES7_NS_4lessISG_EENS8_INS_4pairIKSG_S7_EEEEEEEEEEEODaOT_NS_16in_place_index_tILm0EEE, symObjAddr: 0xB114, symBinAddr: 0x10000B6FC, symSize: 0x14 }
  - { offset: 0x1BCBE, size: 0x8, addend: 0x0, symName: __ZNSt3__116__variant_detail8__access6__base9__get_altB8ne180100ILm5ENS0_6__baseILNS0_6_TraitE1EJDnbdNS_12basic_stringIcNS_11char_traitsIcEENS_9allocatorIcEEEENS_6vectorI9JsonValueNS9_ISD_EEEENS_3mapISB_SD_NS_4lessISB_EENS9_INS_4pairIKSB_SD_EEEEEEEEEEEODaOT0_, symObjAddr: 0xB15C, symBinAddr: 0x10000B744, symSize: 0x24 }
  - { offset: 0x1BCF5, size: 0x8, addend: 0x0, symName: __ZZNSt3__116__variant_detail6__ctorINS0_8__traitsIJDnbdNS_12basic_stringIcNS_11char_traitsIcEENS_9allocatorIcEEEENS_6vectorI9JsonValueNS6_ISA_EEEENS_3mapIS8_SA_NS_4lessIS8_EENS6_INS_4pairIKS8_SA_EEEEEEEEEE19__generic_constructB8ne180100INS0_18__move_constructorISL_LNS0_6_TraitE1EEEEEvRSM_OT_ENKUlRSS_OT0_E_clINS0_5__altILm5ESK_EES10_EEDaSU_SW_, symObjAddr: 0xB180, symBinAddr: 0x10000B768, symSize: 0x30 }
  - { offset: 0x1BD4F, size: 0x8, addend: 0x0, symName: __ZNSt3__116__variant_detail8__access7__union9__get_altB8ne180100INS0_7__unionILNS0_6_TraitE1ELm0EJDnbdNS_12basic_stringIcNS_11char_traitsIcEENS_9allocatorIcEEEENS_6vectorI9JsonValueNS9_ISD_EEEENS_3mapISB_SD_NS_4lessISB_EENS9_INS_4pairIKSB_SD_EEEEEEEEELm5EEEODaOT_NS_16in_place_index_tIXT0_EEE, symObjAddr: 0xB1B0, symBinAddr: 0x10000B798, symSize: 0x24 }
  - { offset: 0x1BD92, size: 0x8, addend: 0x0, symName: __ZNSt3__116__variant_detail8__access7__union9__get_altB8ne180100INS0_7__unionILNS0_6_TraitE1ELm1EJbdNS_12basic_stringIcNS_11char_traitsIcEENS_9allocatorIcEEEENS_6vectorI9JsonValueNS9_ISD_EEEENS_3mapISB_SD_NS_4lessISB_EENS9_INS_4pairIKSB_SD_EEEEEEEEELm4EEEODaOT_NS_16in_place_index_tIXT0_EEE, symObjAddr: 0xB1D4, symBinAddr: 0x10000B7BC, symSize: 0x24 }
  - { offset: 0x1BDD5, size: 0x8, addend: 0x0, symName: __ZNSt3__116__variant_detail8__access7__union9__get_altB8ne180100INS0_7__unionILNS0_6_TraitE1ELm2EJdNS_12basic_stringIcNS_11char_traitsIcEENS_9allocatorIcEEEENS_6vectorI9JsonValueNS9_ISD_EEEENS_3mapISB_SD_NS_4lessISB_EENS9_INS_4pairIKSB_SD_EEEEEEEEELm3EEEODaOT_NS_16in_place_index_tIXT0_EEE, symObjAddr: 0xB1F8, symBinAddr: 0x10000B7E0, symSize: 0x24 }
  - { offset: 0x1BE18, size: 0x8, addend: 0x0, symName: __ZNSt3__116__variant_detail8__access7__union9__get_altB8ne180100INS0_7__unionILNS0_6_TraitE1ELm3EJNS_12basic_stringIcNS_11char_traitsIcEENS_9allocatorIcEEEENS_6vectorI9JsonValueNS9_ISD_EEEENS_3mapISB_SD_NS_4lessISB_EENS9_INS_4pairIKSB_SD_EEEEEEEEELm2EEEODaOT_NS_16in_place_index_tIXT0_EEE, symObjAddr: 0xB21C, symBinAddr: 0x10000B804, symSize: 0x24 }
  - { offset: 0x1BE5B, size: 0x8, addend: 0x0, symName: __ZNSt3__116__variant_detail8__access7__union9__get_altB8ne180100INS0_7__unionILNS0_6_TraitE1ELm4EJNS_6vectorI9JsonValueNS_9allocatorIS7_EEEENS_3mapINS_12basic_stringIcNS_11char_traitsIcEENS8_IcEEEES7_NS_4lessISG_EENS8_INS_4pairIKSG_S7_EEEEEEEEELm1EEEODaOT_NS_16in_place_index_tIXT0_EEE, symObjAddr: 0xB240, symBinAddr: 0x10000B828, symSize: 0x24 }
  - { offset: 0x1BE9E, size: 0x8, addend: 0x0, symName: __ZNSt3__116__variant_detail8__access7__union9__get_altB8ne180100INS0_7__unionILNS0_6_TraitE1ELm5EJNS_3mapINS_12basic_stringIcNS_11char_traitsIcEENS_9allocatorIcEEEE9JsonValueNS_4lessISC_EENSA_INS_4pairIKSC_SD_EEEEEEEEEEEODaOT_NS_16in_place_index_tILm0EEE, symObjAddr: 0xB264, symBinAddr: 0x10000B84C, symSize: 0x14 }
  - { offset: 0x1BED7, size: 0x8, addend: 0x0, symName: __ZNSt3__114__split_bufferI9JsonValueRNS_9allocatorIS1_EEEC1EmmS4_, symObjAddr: 0xB278, symBinAddr: 0x10000B860, symSize: 0x44 }
  - { offset: 0x1BF2D, size: 0x8, addend: 0x0, symName: __ZNSt3__114__split_bufferI9JsonValueRNS_9allocatorIS1_EEED1Ev, symObjAddr: 0xB3CC, symBinAddr: 0x10000B9B4, symSize: 0x2C }
  - { offset: 0x1BF59, size: 0x8, addend: 0x0, symName: __ZNSt3__114__split_bufferI9JsonValueRNS_9allocatorIS1_EEEC2EmmS4_, symObjAddr: 0xB3F8, symBinAddr: 0x10000B9E0, symSize: 0xD4 }
  - { offset: 0x1BFCC, size: 0x8, addend: 0x0, symName: __ZNSt3__117__compressed_pairIP9JsonValueRNS_9allocatorIS1_EEEC1B8ne180100IDnS5_EEOT_OT0_, symObjAddr: 0xB4CC, symBinAddr: 0x10000BAB4, symSize: 0x3C }
  - { offset: 0x1C024, size: 0x8, addend: 0x0, symName: __ZNSt3__114__split_bufferI9JsonValueRNS_9allocatorIS1_EEE7__allocB8ne180100Ev, symObjAddr: 0xB508, symBinAddr: 0x10000BAF0, symSize: 0x28 }
  - { offset: 0x1C04A, size: 0x8, addend: 0x0, symName: __ZNSt3__114__split_bufferI9JsonValueRNS_9allocatorIS1_EEE9__end_capB8ne180100Ev, symObjAddr: 0xB530, symBinAddr: 0x10000BB18, symSize: 0x28 }
  - { offset: 0x1C070, size: 0x8, addend: 0x0, symName: __ZNSt3__117__compressed_pairIP9JsonValueRNS_9allocatorIS1_EEEC2B8ne180100IDnS5_EEOT_OT0_, symObjAddr: 0xB558, symBinAddr: 0x10000BB40, symSize: 0x48 }
  - { offset: 0x1C0C8, size: 0x8, addend: 0x0, symName: __ZNSt3__122__compressed_pair_elemIRNS_9allocatorI9JsonValueEELi1ELb0EEC2B8ne180100IS4_vEEOT_, symObjAddr: 0xB5A0, symBinAddr: 0x10000BB88, symSize: 0x20 }
  - { offset: 0x1C10A, size: 0x8, addend: 0x0, symName: __ZNSt3__117__compressed_pairIP9JsonValueRNS_9allocatorIS1_EEE6secondB8ne180100Ev, symObjAddr: 0xB5C0, symBinAddr: 0x10000BBA8, symSize: 0x28 }
  - { offset: 0x1C130, size: 0x8, addend: 0x0, symName: __ZNSt3__122__compressed_pair_elemIRNS_9allocatorI9JsonValueEELi1ELb0EE5__getB8ne180100Ev, symObjAddr: 0xB5E8, symBinAddr: 0x10000BBD0, symSize: 0x18 }
  - { offset: 0x1C156, size: 0x8, addend: 0x0, symName: __ZNSt3__117__compressed_pairIP9JsonValueRNS_9allocatorIS1_EEE5firstB8ne180100Ev, symObjAddr: 0xB600, symBinAddr: 0x10000BBE8, symSize: 0x24 }
  - { offset: 0x1C17C, size: 0x8, addend: 0x0, symName: __ZNSt3__129_AllocatorDestroyRangeReverseINS_9allocatorI9JsonValueEENS_16reverse_iteratorIPS2_EEEC1B8ne180100ERS3_RS6_S9_, symObjAddr: 0xB7C8, symBinAddr: 0x10000BDB0, symSize: 0x44 }
  - { offset: 0x1C1D3, size: 0x8, addend: 0x0, symName: __ZNSt3__128__exception_guard_exceptionsINS_29_AllocatorDestroyRangeReverseINS_9allocatorI9JsonValueEENS_16reverse_iteratorIPS3_EEEEE10__completeB8ne180100Ev, symObjAddr: 0xB80C, symBinAddr: 0x10000BDF4, symSize: 0x1C }
  - { offset: 0x1C1F9, size: 0x8, addend: 0x0, symName: __ZNSt3__128__exception_guard_exceptionsINS_29_AllocatorDestroyRangeReverseINS_9allocatorI9JsonValueEENS_16reverse_iteratorIPS3_EEEEED1B8ne180100Ev, symObjAddr: 0xB828, symBinAddr: 0x10000BE10, symSize: 0x2C }
  - { offset: 0x1C223, size: 0x8, addend: 0x0, symName: __ZNSt3__128__exception_guard_exceptionsINS_29_AllocatorDestroyRangeReverseINS_9allocatorI9JsonValueEENS_16reverse_iteratorIPS3_EEEEEC1B8ne180100ES8_, symObjAddr: 0xB854, symBinAddr: 0x10000BE3C, symSize: 0x34 }
  - { offset: 0x1C25C, size: 0x8, addend: 0x0, symName: __ZNSt3__128__exception_guard_exceptionsINS_29_AllocatorDestroyRangeReverseINS_9allocatorI9JsonValueEENS_16reverse_iteratorIPS3_EEEEEC2B8ne180100ES8_, symObjAddr: 0xB888, symBinAddr: 0x10000BE70, symSize: 0x30 }
  - { offset: 0x1C295, size: 0x8, addend: 0x0, symName: __ZNSt3__129_AllocatorDestroyRangeReverseINS_9allocatorI9JsonValueEENS_16reverse_iteratorIPS2_EEEC2B8ne180100ERS3_RS6_S9_, symObjAddr: 0xB8B8, symBinAddr: 0x10000BEA0, symSize: 0x38 }
  - { offset: 0x1C2EC, size: 0x8, addend: 0x0, symName: __ZNSt3__128__exception_guard_exceptionsINS_29_AllocatorDestroyRangeReverseINS_9allocatorI9JsonValueEENS_16reverse_iteratorIPS3_EEEEED2B8ne180100Ev, symObjAddr: 0xB8F0, symBinAddr: 0x10000BED8, symSize: 0x50 }
  - { offset: 0x1C316, size: 0x8, addend: 0x0, symName: __ZNKSt3__129_AllocatorDestroyRangeReverseINS_9allocatorI9JsonValueEENS_16reverse_iteratorIPS2_EEEclB8ne180100Ev, symObjAddr: 0xB940, symBinAddr: 0x10000BF28, symSize: 0xB4 }
  - { offset: 0x1C33D, size: 0x8, addend: 0x0, symName: __ZNSt3__116reverse_iteratorINS0_IP9JsonValueEEEC1B8ne180100ES3_, symObjAddr: 0xBA64, symBinAddr: 0x10000C04C, symSize: 0x3C }
  - { offset: 0x1C375, size: 0x8, addend: 0x0, symName: __ZNSt3__116reverse_iteratorINS0_IP9JsonValueEEEppB8ne180100Ev, symObjAddr: 0xBB24, symBinAddr: 0x10000C10C, symSize: 0x30 }
  - { offset: 0x1C39B, size: 0x8, addend: 0x0, symName: __ZNKSt3__116reverse_iteratorINS0_IP9JsonValueEEE4baseB8ne180100Ev, symObjAddr: 0xBB54, symBinAddr: 0x10000C13C, symSize: 0x24 }
  - { offset: 0x1C3C7, size: 0x8, addend: 0x0, symName: __ZNSt3__119__to_address_helperINS_16reverse_iteratorINS1_IP9JsonValueEEEEvE6__callB8ne180100ERKS5_, symObjAddr: 0xBB78, symBinAddr: 0x10000C160, symSize: 0x38 }
  - { offset: 0x1C3EA, size: 0x8, addend: 0x0, symName: __ZNKSt3__116reverse_iteratorINS0_IP9JsonValueEEEptB8ne180100Ev, symObjAddr: 0xBBB0, symBinAddr: 0x10000C198, symSize: 0x24 }
  - { offset: 0x1C410, size: 0x8, addend: 0x0, symName: __ZNKSt3__116reverse_iteratorINS0_IP9JsonValueEEEdeB8ne180100Ev, symObjAddr: 0xBBD4, symBinAddr: 0x10000C1BC, symSize: 0x34 }
  - { offset: 0x1C444, size: 0x8, addend: 0x0, symName: __ZNSt3__116reverse_iteratorIP9JsonValueEmmB8ne180100Ev, symObjAddr: 0xBC08, symBinAddr: 0x10000C1F0, symSize: 0x20 }
  - { offset: 0x1C46A, size: 0x8, addend: 0x0, symName: __ZNSt3__116reverse_iteratorINS0_IP9JsonValueEEEC2B8ne180100ES3_, symObjAddr: 0xBC28, symBinAddr: 0x10000C210, symSize: 0x2C }
  - { offset: 0x1C4A2, size: 0x8, addend: 0x0, symName: __ZNSt3__114__split_bufferI9JsonValueRNS_9allocatorIS1_EEED2Ev, symObjAddr: 0xBC54, symBinAddr: 0x10000C23C, symSize: 0x8C }
  - { offset: 0x1C4CE, size: 0x8, addend: 0x0, symName: __ZNSt3__114__split_bufferI9JsonValueRNS_9allocatorIS1_EEE5clearB8ne180100Ev, symObjAddr: 0xBCE0, symBinAddr: 0x10000C2C8, symSize: 0x28 }
  - { offset: 0x1C4F4, size: 0x8, addend: 0x0, symName: __ZNKSt3__114__split_bufferI9JsonValueRNS_9allocatorIS1_EEE8capacityB8ne180100Ev, symObjAddr: 0xBD08, symBinAddr: 0x10000C2F0, symSize: 0x40 }
  - { offset: 0x1C51A, size: 0x8, addend: 0x0, symName: __ZNSt3__114__split_bufferI9JsonValueRNS_9allocatorIS1_EEE17__destruct_at_endB8ne180100EPS1_, symObjAddr: 0xBD48, symBinAddr: 0x10000C330, symSize: 0x2C }
  - { offset: 0x1C54E, size: 0x8, addend: 0x0, symName: __ZNSt3__114__split_bufferI9JsonValueRNS_9allocatorIS1_EEE17__destruct_at_endB8ne180100EPS1_NS_17integral_constantIbLb0EEE, symObjAddr: 0xBD74, symBinAddr: 0x10000C35C, symSize: 0x80 }
  - { offset: 0x1C58E, size: 0x8, addend: 0x0, symName: __ZNKSt3__114__split_bufferI9JsonValueRNS_9allocatorIS1_EEE9__end_capB8ne180100Ev, symObjAddr: 0xBDF4, symBinAddr: 0x10000C3DC, symSize: 0x28 }
  - { offset: 0x1C5B4, size: 0x8, addend: 0x0, symName: __ZNKSt3__117__compressed_pairIP9JsonValueRNS_9allocatorIS1_EEE5firstB8ne180100Ev, symObjAddr: 0xBE1C, symBinAddr: 0x10000C404, symSize: 0x24 }
  - { offset: 0x1C5DA, size: 0x8, addend: 0x0, symName: __ZN9JsonValueCI2NSt3__17variantIJDnbdNS0_12basic_stringIcNS0_11char_traitsIcEENS0_9allocatorIcEEEENS0_6vectorIS_NS5_IS_EEEENS0_3mapIS7_S_NS0_4lessIS7_EENS5_INS0_4pairIKS7_S_EEEEEEEEEIRSA_Li0ELi0ELi0ESA_Lm4ELi0EEEOT_, symObjAddr: 0xBE40, symBinAddr: 0x10000C428, symSize: 0x34 }
  - { offset: 0x1C60F, size: 0x8, addend: 0x0, symName: __ZNSt3__17variantIJDnbdNS_12basic_stringIcNS_11char_traitsIcEENS_9allocatorIcEEEENS_6vectorI9JsonValueNS4_IS8_EEEENS_3mapIS6_S8_NS_4lessIS6_EENS4_INS_4pairIKS6_S8_EEEEEEEEC2B8ne180100IRSA_Li0ELi0ELi0ESA_Lm4ELi0EEEOT_, symObjAddr: 0xBE74, symBinAddr: 0x10000C45C, symSize: 0x34 }
  - { offset: 0x1C67C, size: 0x8, addend: 0x0, symName: __ZNSt3__116__variant_detail6__implIJDnbdNS_12basic_stringIcNS_11char_traitsIcEENS_9allocatorIcEEEENS_6vectorI9JsonValueNS5_IS9_EEEENS_3mapIS7_S9_NS_4lessIS7_EENS5_INS_4pairIKS7_S9_EEEEEEEECI1NS0_6__baseILNS0_6_TraitE1EJDnbdS7_SB_SJ_EEEILm4EJRSB_EEENS_16in_place_index_tIXT_EEEDpOT0_, symObjAddr: 0xBEA8, symBinAddr: 0x10000C490, symSize: 0x34 }
  - { offset: 0x1C6BB, size: 0x8, addend: 0x0, symName: __ZNSt3__116__variant_detail6__implIJDnbdNS_12basic_stringIcNS_11char_traitsIcEENS_9allocatorIcEEEENS_6vectorI9JsonValueNS5_IS9_EEEENS_3mapIS7_S9_NS_4lessIS7_EENS5_INS_4pairIKS7_S9_EEEEEEEECI2NS0_6__baseILNS0_6_TraitE1EJDnbdS7_SB_SJ_EEEILm4EJRSB_EEENS_16in_place_index_tIXT_EEEDpOT0_, symObjAddr: 0xBEDC, symBinAddr: 0x10000C4C4, symSize: 0x34 }
  - { offset: 0x1C6FA, size: 0x8, addend: 0x0, symName: __ZNSt3__116__variant_detail17__copy_assignmentINS0_8__traitsIJDnbdNS_12basic_stringIcNS_11char_traitsIcEENS_9allocatorIcEEEENS_6vectorI9JsonValueNS6_ISA_EEEENS_3mapIS8_SA_NS_4lessIS8_EENS6_INS_4pairIKS8_SA_EEEEEEEEELNS0_6_TraitE1EECI2NS0_6__baseILSM_1EJDnbdS8_SC_SK_EEEILm4EJRSC_EEENS_16in_place_index_tIXT_EEEDpOT0_, symObjAddr: 0xBF10, symBinAddr: 0x10000C4F8, symSize: 0x34 }
  - { offset: 0x1C739, size: 0x8, addend: 0x0, symName: __ZNSt3__116__variant_detail17__move_assignmentINS0_8__traitsIJDnbdNS_12basic_stringIcNS_11char_traitsIcEENS_9allocatorIcEEEENS_6vectorI9JsonValueNS6_ISA_EEEENS_3mapIS8_SA_NS_4lessIS8_EENS6_INS_4pairIKS8_SA_EEEEEEEEELNS0_6_TraitE1EECI2NS0_6__baseILSM_1EJDnbdS8_SC_SK_EEEILm4EJRSC_EEENS_16in_place_index_tIXT_EEEDpOT0_, symObjAddr: 0xBF44, symBinAddr: 0x10000C52C, symSize: 0x34 }
  - { offset: 0x1C778, size: 0x8, addend: 0x0, symName: __ZNSt3__116__variant_detail12__assignmentINS0_8__traitsIJDnbdNS_12basic_stringIcNS_11char_traitsIcEENS_9allocatorIcEEEENS_6vectorI9JsonValueNS6_ISA_EEEENS_3mapIS8_SA_NS_4lessIS8_EENS6_INS_4pairIKS8_SA_EEEEEEEEEECI2NS0_6__baseILNS0_6_TraitE1EJDnbdS8_SC_SK_EEEILm4EJRSC_EEENS_16in_place_index_tIXT_EEEDpOT0_, symObjAddr: 0xBF78, symBinAddr: 0x10000C560, symSize: 0x34 }
  - { offset: 0x1C7B7, size: 0x8, addend: 0x0, symName: __ZNSt3__116__variant_detail18__copy_constructorINS0_8__traitsIJDnbdNS_12basic_stringIcNS_11char_traitsIcEENS_9allocatorIcEEEENS_6vectorI9JsonValueNS6_ISA_EEEENS_3mapIS8_SA_NS_4lessIS8_EENS6_INS_4pairIKS8_SA_EEEEEEEEELNS0_6_TraitE1EECI2NS0_6__baseILSM_1EJDnbdS8_SC_SK_EEEILm4EJRSC_EEENS_16in_place_index_tIXT_EEEDpOT0_, symObjAddr: 0xBFAC, symBinAddr: 0x10000C594, symSize: 0x34 }
  - { offset: 0x1C7F6, size: 0x8, addend: 0x0, symName: __ZNSt3__116__variant_detail18__move_constructorINS0_8__traitsIJDnbdNS_12basic_stringIcNS_11char_traitsIcEENS_9allocatorIcEEEENS_6vectorI9JsonValueNS6_ISA_EEEENS_3mapIS8_SA_NS_4lessIS8_EENS6_INS_4pairIKS8_SA_EEEEEEEEELNS0_6_TraitE1EECI2NS0_6__baseILSM_1EJDnbdS8_SC_SK_EEEILm4EJRSC_EEENS_16in_place_index_tIXT_EEEDpOT0_, symObjAddr: 0xBFE0, symBinAddr: 0x10000C5C8, symSize: 0x34 }
  - { offset: 0x1C835, size: 0x8, addend: 0x0, symName: __ZNSt3__116__variant_detail6__ctorINS0_8__traitsIJDnbdNS_12basic_stringIcNS_11char_traitsIcEENS_9allocatorIcEEEENS_6vectorI9JsonValueNS6_ISA_EEEENS_3mapIS8_SA_NS_4lessIS8_EENS6_INS_4pairIKS8_SA_EEEEEEEEEECI2NS0_6__baseILNS0_6_TraitE1EJDnbdS8_SC_SK_EEEILm4EJRSC_EEENS_16in_place_index_tIXT_EEEDpOT0_, symObjAddr: 0xC014, symBinAddr: 0x10000C5FC, symSize: 0x34 }
  - { offset: 0x1C874, size: 0x8, addend: 0x0, symName: __ZNSt3__116__variant_detail6__dtorINS0_8__traitsIJDnbdNS_12basic_stringIcNS_11char_traitsIcEENS_9allocatorIcEEEENS_6vectorI9JsonValueNS6_ISA_EEEENS_3mapIS8_SA_NS_4lessIS8_EENS6_INS_4pairIKS8_SA_EEEEEEEEELNS0_6_TraitE1EECI2NS0_6__baseILSM_1EJDnbdS8_SC_SK_EEEILm4EJRSC_EEENS_16in_place_index_tIXT_EEEDpOT0_, symObjAddr: 0xC048, symBinAddr: 0x10000C630, symSize: 0x34 }
  - { offset: 0x1C8B3, size: 0x8, addend: 0x0, symName: __ZNSt3__116__variant_detail6__baseILNS0_6_TraitE1EJDnbdNS_12basic_stringIcNS_11char_traitsIcEENS_9allocatorIcEEEENS_6vectorI9JsonValueNS6_ISA_EEEENS_3mapIS8_SA_NS_4lessIS8_EENS6_INS_4pairIKS8_SA_EEEEEEEEC2B8ne180100ILm4EJRSC_EEENS_16in_place_index_tIXT_EEEDpOT0_, symObjAddr: 0xC07C, symBinAddr: 0x10000C664, symSize: 0x3C }
  - { offset: 0x1C90D, size: 0x8, addend: 0x0, symName: __ZNSt3__116__variant_detail7__unionILNS0_6_TraitE1ELm0EJDnbdNS_12basic_stringIcNS_11char_traitsIcEENS_9allocatorIcEEEENS_6vectorI9JsonValueNS6_ISA_EEEENS_3mapIS8_SA_NS_4lessIS8_EENS6_INS_4pairIKS8_SA_EEEEEEEEC1B8ne180100ILm4EJRSC_EEENS_16in_place_index_tIXT_EEEDpOT0_, symObjAddr: 0xC0B8, symBinAddr: 0x10000C6A0, symSize: 0x34 }
  - { offset: 0x1C967, size: 0x8, addend: 0x0, symName: __ZNSt3__116__variant_detail7__unionILNS0_6_TraitE1ELm0EJDnbdNS_12basic_stringIcNS_11char_traitsIcEENS_9allocatorIcEEEENS_6vectorI9JsonValueNS6_ISA_EEEENS_3mapIS8_SA_NS_4lessIS8_EENS6_INS_4pairIKS8_SA_EEEEEEEEC2B8ne180100ILm4EJRSC_EEENS_16in_place_index_tIXT_EEEDpOT0_, symObjAddr: 0xC0EC, symBinAddr: 0x10000C6D4, symSize: 0x34 }
  - { offset: 0x1C9C1, size: 0x8, addend: 0x0, symName: __ZNSt3__116__variant_detail7__unionILNS0_6_TraitE1ELm1EJbdNS_12basic_stringIcNS_11char_traitsIcEENS_9allocatorIcEEEENS_6vectorI9JsonValueNS6_ISA_EEEENS_3mapIS8_SA_NS_4lessIS8_EENS6_INS_4pairIKS8_SA_EEEEEEEEC1B8ne180100ILm3EJRSC_EEENS_16in_place_index_tIXT_EEEDpOT0_, symObjAddr: 0xC120, symBinAddr: 0x10000C708, symSize: 0x34 }
  - { offset: 0x1CA1B, size: 0x8, addend: 0x0, symName: __ZNSt3__116__variant_detail7__unionILNS0_6_TraitE1ELm1EJbdNS_12basic_stringIcNS_11char_traitsIcEENS_9allocatorIcEEEENS_6vectorI9JsonValueNS6_ISA_EEEENS_3mapIS8_SA_NS_4lessIS8_EENS6_INS_4pairIKS8_SA_EEEEEEEEC2B8ne180100ILm3EJRSC_EEENS_16in_place_index_tIXT_EEEDpOT0_, symObjAddr: 0xC154, symBinAddr: 0x10000C73C, symSize: 0x34 }
  - { offset: 0x1CA75, size: 0x8, addend: 0x0, symName: __ZNSt3__116__variant_detail7__unionILNS0_6_TraitE1ELm2EJdNS_12basic_stringIcNS_11char_traitsIcEENS_9allocatorIcEEEENS_6vectorI9JsonValueNS6_ISA_EEEENS_3mapIS8_SA_NS_4lessIS8_EENS6_INS_4pairIKS8_SA_EEEEEEEEC1B8ne180100ILm2EJRSC_EEENS_16in_place_index_tIXT_EEEDpOT0_, symObjAddr: 0xC188, symBinAddr: 0x10000C770, symSize: 0x34 }
  - { offset: 0x1CACF, size: 0x8, addend: 0x0, symName: __ZNSt3__116__variant_detail7__unionILNS0_6_TraitE1ELm2EJdNS_12basic_stringIcNS_11char_traitsIcEENS_9allocatorIcEEEENS_6vectorI9JsonValueNS6_ISA_EEEENS_3mapIS8_SA_NS_4lessIS8_EENS6_INS_4pairIKS8_SA_EEEEEEEEC2B8ne180100ILm2EJRSC_EEENS_16in_place_index_tIXT_EEEDpOT0_, symObjAddr: 0xC1BC, symBinAddr: 0x10000C7A4, symSize: 0x34 }
  - { offset: 0x1CB29, size: 0x8, addend: 0x0, symName: __ZNSt3__116__variant_detail7__unionILNS0_6_TraitE1ELm3EJNS_12basic_stringIcNS_11char_traitsIcEENS_9allocatorIcEEEENS_6vectorI9JsonValueNS6_ISA_EEEENS_3mapIS8_SA_NS_4lessIS8_EENS6_INS_4pairIKS8_SA_EEEEEEEEC1B8ne180100ILm1EJRSC_EEENS_16in_place_index_tIXT_EEEDpOT0_, symObjAddr: 0xC1F0, symBinAddr: 0x10000C7D8, symSize: 0x34 }
  - { offset: 0x1CB83, size: 0x8, addend: 0x0, symName: __ZNSt3__116__variant_detail7__unionILNS0_6_TraitE1ELm3EJNS_12basic_stringIcNS_11char_traitsIcEENS_9allocatorIcEEEENS_6vectorI9JsonValueNS6_ISA_EEEENS_3mapIS8_SA_NS_4lessIS8_EENS6_INS_4pairIKS8_SA_EEEEEEEEC2B8ne180100ILm1EJRSC_EEENS_16in_place_index_tIXT_EEEDpOT0_, symObjAddr: 0xC224, symBinAddr: 0x10000C80C, symSize: 0x34 }
  - { offset: 0x1CBDD, size: 0x8, addend: 0x0, symName: __ZNSt3__116__variant_detail7__unionILNS0_6_TraitE1ELm4EJNS_6vectorI9JsonValueNS_9allocatorIS4_EEEENS_3mapINS_12basic_stringIcNS_11char_traitsIcEENS5_IcEEEES4_NS_4lessISD_EENS5_INS_4pairIKSD_S4_EEEEEEEEC1B8ne180100IJRS7_EEENS_16in_place_index_tILm0EEEDpOT_, symObjAddr: 0xC258, symBinAddr: 0x10000C840, symSize: 0x34 }
  - { offset: 0x1CC2D, size: 0x8, addend: 0x0, symName: __ZNSt3__116__variant_detail7__unionILNS0_6_TraitE1ELm4EJNS_6vectorI9JsonValueNS_9allocatorIS4_EEEENS_3mapINS_12basic_stringIcNS_11char_traitsIcEENS5_IcEEEES4_NS_4lessISD_EENS5_INS_4pairIKSD_S4_EEEEEEEEC2B8ne180100IJRS7_EEENS_16in_place_index_tILm0EEEDpOT_, symObjAddr: 0xC28C, symBinAddr: 0x10000C874, symSize: 0x34 }
  - { offset: 0x1CC7D, size: 0x8, addend: 0x0, symName: __ZNSt3__116__variant_detail5__altILm4ENS_6vectorI9JsonValueNS_9allocatorIS3_EEEEEC1B8ne180100IJRS6_EEENS_10in_place_tEDpOT_, symObjAddr: 0xC2C0, symBinAddr: 0x10000C8A8, symSize: 0x34 }
  - { offset: 0x1CCCD, size: 0x8, addend: 0x0, symName: __ZNSt3__116__variant_detail5__altILm4ENS_6vectorI9JsonValueNS_9allocatorIS3_EEEEEC2B8ne180100IJRS6_EEENS_10in_place_tEDpOT_, symObjAddr: 0xC2F4, symBinAddr: 0x10000C8DC, symSize: 0x34 }
  - { offset: 0x1CD1D, size: 0x8, addend: 0x0, symName: __ZN9JsonValueCI1NSt3__17variantIJDnbdNS0_12basic_stringIcNS0_11char_traitsIcEENS0_9allocatorIcEEEENS0_6vectorIS_NS5_IS_EEEENS0_3mapIS7_S_NS0_4lessIS7_EENS5_INS0_4pairIKS7_S_EEEEEEEEEIRS7_Li0ELi0ELi0ES7_Lm3ELi0EEEOT_, symObjAddr: 0xC328, symBinAddr: 0x10000C910, symSize: 0x34 }
  - { offset: 0x1CD52, size: 0x8, addend: 0x0, symName: __ZN9JsonValueCI2NSt3__17variantIJDnbdNS0_12basic_stringIcNS0_11char_traitsIcEENS0_9allocatorIcEEEENS0_6vectorIS_NS5_IS_EEEENS0_3mapIS7_S_NS0_4lessIS7_EENS5_INS0_4pairIKS7_S_EEEEEEEEEIRS7_Li0ELi0ELi0ES7_Lm3ELi0EEEOT_, symObjAddr: 0xC35C, symBinAddr: 0x10000C944, symSize: 0x34 }
  - { offset: 0x1CD87, size: 0x8, addend: 0x0, symName: __ZNSt3__17variantIJDnbdNS_12basic_stringIcNS_11char_traitsIcEENS_9allocatorIcEEEENS_6vectorI9JsonValueNS4_IS8_EEEENS_3mapIS6_S8_NS_4lessIS6_EENS4_INS_4pairIKS6_S8_EEEEEEEEC2B8ne180100IRS6_Li0ELi0ELi0ES6_Lm3ELi0EEEOT_, symObjAddr: 0xC390, symBinAddr: 0x10000C978, symSize: 0x34 }
  - { offset: 0x1CDF4, size: 0x8, addend: 0x0, symName: __ZNSt3__116__variant_detail6__implIJDnbdNS_12basic_stringIcNS_11char_traitsIcEENS_9allocatorIcEEEENS_6vectorI9JsonValueNS5_IS9_EEEENS_3mapIS7_S9_NS_4lessIS7_EENS5_INS_4pairIKS7_S9_EEEEEEEECI1NS0_6__baseILNS0_6_TraitE1EJDnbdS7_SB_SJ_EEEILm3EJRS7_EEENS_16in_place_index_tIXT_EEEDpOT0_, symObjAddr: 0xC3C4, symBinAddr: 0x10000C9AC, symSize: 0x34 }
  - { offset: 0x1CE33, size: 0x8, addend: 0x0, symName: __ZNSt3__116__variant_detail6__implIJDnbdNS_12basic_stringIcNS_11char_traitsIcEENS_9allocatorIcEEEENS_6vectorI9JsonValueNS5_IS9_EEEENS_3mapIS7_S9_NS_4lessIS7_EENS5_INS_4pairIKS7_S9_EEEEEEEECI2NS0_6__baseILNS0_6_TraitE1EJDnbdS7_SB_SJ_EEEILm3EJRS7_EEENS_16in_place_index_tIXT_EEEDpOT0_, symObjAddr: 0xC3F8, symBinAddr: 0x10000C9E0, symSize: 0x34 }
  - { offset: 0x1CE72, size: 0x8, addend: 0x0, symName: __ZNSt3__116__variant_detail17__copy_assignmentINS0_8__traitsIJDnbdNS_12basic_stringIcNS_11char_traitsIcEENS_9allocatorIcEEEENS_6vectorI9JsonValueNS6_ISA_EEEENS_3mapIS8_SA_NS_4lessIS8_EENS6_INS_4pairIKS8_SA_EEEEEEEEELNS0_6_TraitE1EECI2NS0_6__baseILSM_1EJDnbdS8_SC_SK_EEEILm3EJRS8_EEENS_16in_place_index_tIXT_EEEDpOT0_, symObjAddr: 0xC42C, symBinAddr: 0x10000CA14, symSize: 0x34 }
  - { offset: 0x1CEB1, size: 0x8, addend: 0x0, symName: __ZNSt3__116__variant_detail17__move_assignmentINS0_8__traitsIJDnbdNS_12basic_stringIcNS_11char_traitsIcEENS_9allocatorIcEEEENS_6vectorI9JsonValueNS6_ISA_EEEENS_3mapIS8_SA_NS_4lessIS8_EENS6_INS_4pairIKS8_SA_EEEEEEEEELNS0_6_TraitE1EECI2NS0_6__baseILSM_1EJDnbdS8_SC_SK_EEEILm3EJRS8_EEENS_16in_place_index_tIXT_EEEDpOT0_, symObjAddr: 0xC460, symBinAddr: 0x10000CA48, symSize: 0x34 }
  - { offset: 0x1CEF0, size: 0x8, addend: 0x0, symName: __ZNSt3__116__variant_detail12__assignmentINS0_8__traitsIJDnbdNS_12basic_stringIcNS_11char_traitsIcEENS_9allocatorIcEEEENS_6vectorI9JsonValueNS6_ISA_EEEENS_3mapIS8_SA_NS_4lessIS8_EENS6_INS_4pairIKS8_SA_EEEEEEEEEECI2NS0_6__baseILNS0_6_TraitE1EJDnbdS8_SC_SK_EEEILm3EJRS8_EEENS_16in_place_index_tIXT_EEEDpOT0_, symObjAddr: 0xC494, symBinAddr: 0x10000CA7C, symSize: 0x34 }
  - { offset: 0x1CF2F, size: 0x8, addend: 0x0, symName: __ZNSt3__116__variant_detail18__copy_constructorINS0_8__traitsIJDnbdNS_12basic_stringIcNS_11char_traitsIcEENS_9allocatorIcEEEENS_6vectorI9JsonValueNS6_ISA_EEEENS_3mapIS8_SA_NS_4lessIS8_EENS6_INS_4pairIKS8_SA_EEEEEEEEELNS0_6_TraitE1EECI2NS0_6__baseILSM_1EJDnbdS8_SC_SK_EEEILm3EJRS8_EEENS_16in_place_index_tIXT_EEEDpOT0_, symObjAddr: 0xC4C8, symBinAddr: 0x10000CAB0, symSize: 0x34 }
  - { offset: 0x1CF6E, size: 0x8, addend: 0x0, symName: __ZNSt3__116__variant_detail18__move_constructorINS0_8__traitsIJDnbdNS_12basic_stringIcNS_11char_traitsIcEENS_9allocatorIcEEEENS_6vectorI9JsonValueNS6_ISA_EEEENS_3mapIS8_SA_NS_4lessIS8_EENS6_INS_4pairIKS8_SA_EEEEEEEEELNS0_6_TraitE1EECI2NS0_6__baseILSM_1EJDnbdS8_SC_SK_EEEILm3EJRS8_EEENS_16in_place_index_tIXT_EEEDpOT0_, symObjAddr: 0xC4FC, symBinAddr: 0x10000CAE4, symSize: 0x34 }
  - { offset: 0x1CFAD, size: 0x8, addend: 0x0, symName: __ZNSt3__116__variant_detail6__ctorINS0_8__traitsIJDnbdNS_12basic_stringIcNS_11char_traitsIcEENS_9allocatorIcEEEENS_6vectorI9JsonValueNS6_ISA_EEEENS_3mapIS8_SA_NS_4lessIS8_EENS6_INS_4pairIKS8_SA_EEEEEEEEEECI2NS0_6__baseILNS0_6_TraitE1EJDnbdS8_SC_SK_EEEILm3EJRS8_EEENS_16in_place_index_tIXT_EEEDpOT0_, symObjAddr: 0xC530, symBinAddr: 0x10000CB18, symSize: 0x34 }
  - { offset: 0x1CFEC, size: 0x8, addend: 0x0, symName: __ZNSt3__116__variant_detail6__dtorINS0_8__traitsIJDnbdNS_12basic_stringIcNS_11char_traitsIcEENS_9allocatorIcEEEENS_6vectorI9JsonValueNS6_ISA_EEEENS_3mapIS8_SA_NS_4lessIS8_EENS6_INS_4pairIKS8_SA_EEEEEEEEELNS0_6_TraitE1EECI2NS0_6__baseILSM_1EJDnbdS8_SC_SK_EEEILm3EJRS8_EEENS_16in_place_index_tIXT_EEEDpOT0_, symObjAddr: 0xC564, symBinAddr: 0x10000CB4C, symSize: 0x34 }
  - { offset: 0x1D02B, size: 0x8, addend: 0x0, symName: __ZNSt3__116__variant_detail6__baseILNS0_6_TraitE1EJDnbdNS_12basic_stringIcNS_11char_traitsIcEENS_9allocatorIcEEEENS_6vectorI9JsonValueNS6_ISA_EEEENS_3mapIS8_SA_NS_4lessIS8_EENS6_INS_4pairIKS8_SA_EEEEEEEEC2B8ne180100ILm3EJRS8_EEENS_16in_place_index_tIXT_EEEDpOT0_, symObjAddr: 0xC598, symBinAddr: 0x10000CB80, symSize: 0x3C }
  - { offset: 0x1D085, size: 0x8, addend: 0x0, symName: __ZNSt3__116__variant_detail7__unionILNS0_6_TraitE1ELm0EJDnbdNS_12basic_stringIcNS_11char_traitsIcEENS_9allocatorIcEEEENS_6vectorI9JsonValueNS6_ISA_EEEENS_3mapIS8_SA_NS_4lessIS8_EENS6_INS_4pairIKS8_SA_EEEEEEEEC1B8ne180100ILm3EJRS8_EEENS_16in_place_index_tIXT_EEEDpOT0_, symObjAddr: 0xC5D4, symBinAddr: 0x10000CBBC, symSize: 0x34 }
  - { offset: 0x1D0DF, size: 0x8, addend: 0x0, symName: __ZNSt3__116__variant_detail7__unionILNS0_6_TraitE1ELm0EJDnbdNS_12basic_stringIcNS_11char_traitsIcEENS_9allocatorIcEEEENS_6vectorI9JsonValueNS6_ISA_EEEENS_3mapIS8_SA_NS_4lessIS8_EENS6_INS_4pairIKS8_SA_EEEEEEEEC2B8ne180100ILm3EJRS8_EEENS_16in_place_index_tIXT_EEEDpOT0_, symObjAddr: 0xC608, symBinAddr: 0x10000CBF0, symSize: 0x34 }
  - { offset: 0x1D139, size: 0x8, addend: 0x0, symName: __ZNSt3__116__variant_detail7__unionILNS0_6_TraitE1ELm1EJbdNS_12basic_stringIcNS_11char_traitsIcEENS_9allocatorIcEEEENS_6vectorI9JsonValueNS6_ISA_EEEENS_3mapIS8_SA_NS_4lessIS8_EENS6_INS_4pairIKS8_SA_EEEEEEEEC1B8ne180100ILm2EJRS8_EEENS_16in_place_index_tIXT_EEEDpOT0_, symObjAddr: 0xC63C, symBinAddr: 0x10000CC24, symSize: 0x34 }
  - { offset: 0x1D193, size: 0x8, addend: 0x0, symName: __ZNSt3__116__variant_detail7__unionILNS0_6_TraitE1ELm1EJbdNS_12basic_stringIcNS_11char_traitsIcEENS_9allocatorIcEEEENS_6vectorI9JsonValueNS6_ISA_EEEENS_3mapIS8_SA_NS_4lessIS8_EENS6_INS_4pairIKS8_SA_EEEEEEEEC2B8ne180100ILm2EJRS8_EEENS_16in_place_index_tIXT_EEEDpOT0_, symObjAddr: 0xC670, symBinAddr: 0x10000CC58, symSize: 0x34 }
  - { offset: 0x1D1ED, size: 0x8, addend: 0x0, symName: __ZNSt3__116__variant_detail7__unionILNS0_6_TraitE1ELm2EJdNS_12basic_stringIcNS_11char_traitsIcEENS_9allocatorIcEEEENS_6vectorI9JsonValueNS6_ISA_EEEENS_3mapIS8_SA_NS_4lessIS8_EENS6_INS_4pairIKS8_SA_EEEEEEEEC1B8ne180100ILm1EJRS8_EEENS_16in_place_index_tIXT_EEEDpOT0_, symObjAddr: 0xC6A4, symBinAddr: 0x10000CC8C, symSize: 0x34 }
  - { offset: 0x1D247, size: 0x8, addend: 0x0, symName: __ZNSt3__116__variant_detail7__unionILNS0_6_TraitE1ELm2EJdNS_12basic_stringIcNS_11char_traitsIcEENS_9allocatorIcEEEENS_6vectorI9JsonValueNS6_ISA_EEEENS_3mapIS8_SA_NS_4lessIS8_EENS6_INS_4pairIKS8_SA_EEEEEEEEC2B8ne180100ILm1EJRS8_EEENS_16in_place_index_tIXT_EEEDpOT0_, symObjAddr: 0xC6D8, symBinAddr: 0x10000CCC0, symSize: 0x34 }
  - { offset: 0x1D2A1, size: 0x8, addend: 0x0, symName: __ZNSt3__116__variant_detail7__unionILNS0_6_TraitE1ELm3EJNS_12basic_stringIcNS_11char_traitsIcEENS_9allocatorIcEEEENS_6vectorI9JsonValueNS6_ISA_EEEENS_3mapIS8_SA_NS_4lessIS8_EENS6_INS_4pairIKS8_SA_EEEEEEEEC1B8ne180100IJRS8_EEENS_16in_place_index_tILm0EEEDpOT_, symObjAddr: 0xC70C, symBinAddr: 0x10000CCF4, symSize: 0x34 }
  - { offset: 0x1D2F1, size: 0x8, addend: 0x0, symName: __ZNSt3__116__variant_detail7__unionILNS0_6_TraitE1ELm3EJNS_12basic_stringIcNS_11char_traitsIcEENS_9allocatorIcEEEENS_6vectorI9JsonValueNS6_ISA_EEEENS_3mapIS8_SA_NS_4lessIS8_EENS6_INS_4pairIKS8_SA_EEEEEEEEC2B8ne180100IJRS8_EEENS_16in_place_index_tILm0EEEDpOT_, symObjAddr: 0xC740, symBinAddr: 0x10000CD28, symSize: 0x34 }
  - { offset: 0x1D341, size: 0x8, addend: 0x0, symName: __ZNSt3__116__variant_detail5__altILm3ENS_12basic_stringIcNS_11char_traitsIcEENS_9allocatorIcEEEEEC1B8ne180100IJRS7_EEENS_10in_place_tEDpOT_, symObjAddr: 0xC774, symBinAddr: 0x10000CD5C, symSize: 0x34 }
  - { offset: 0x1D391, size: 0x8, addend: 0x0, symName: __ZNSt3__116__variant_detail5__altILm3ENS_12basic_stringIcNS_11char_traitsIcEENS_9allocatorIcEEEEEC2B8ne180100IJRS7_EEENS_10in_place_tEDpOT_, symObjAddr: 0xC7A8, symBinAddr: 0x10000CD90, symSize: 0x34 }
  - { offset: 0x1D3E1, size: 0x8, addend: 0x0, symName: __ZN9JsonValueCI1NSt3__17variantIJDnbdNS0_12basic_stringIcNS0_11char_traitsIcEENS0_9allocatorIcEEEENS0_6vectorIS_NS5_IS_EEEENS0_3mapIS7_S_NS0_4lessIS7_EENS5_INS0_4pairIKS7_S_EEEEEEEEEIdLi0ELi0ELi0EdLm2ELi0EEEOT_, symObjAddr: 0xC7DC, symBinAddr: 0x10000CDC4, symSize: 0x34 }
  - { offset: 0x1D416, size: 0x8, addend: 0x0, symName: __ZN9JsonValueCI2NSt3__17variantIJDnbdNS0_12basic_stringIcNS0_11char_traitsIcEENS0_9allocatorIcEEEENS0_6vectorIS_NS5_IS_EEEENS0_3mapIS7_S_NS0_4lessIS7_EENS5_INS0_4pairIKS7_S_EEEEEEEEEIdLi0ELi0ELi0EdLm2ELi0EEEOT_, symObjAddr: 0xC810, symBinAddr: 0x10000CDF8, symSize: 0x34 }
  - { offset: 0x1D44B, size: 0x8, addend: 0x0, symName: __ZNSt3__17variantIJDnbdNS_12basic_stringIcNS_11char_traitsIcEENS_9allocatorIcEEEENS_6vectorI9JsonValueNS4_IS8_EEEENS_3mapIS6_S8_NS_4lessIS6_EENS4_INS_4pairIKS6_S8_EEEEEEEEC2B8ne180100IdLi0ELi0ELi0EdLm2ELi0EEEOT_, symObjAddr: 0xC844, symBinAddr: 0x10000CE2C, symSize: 0x3C }
  - { offset: 0x1D4B8, size: 0x8, addend: 0x0, symName: __ZNSt3__116__variant_detail6__implIJDnbdNS_12basic_stringIcNS_11char_traitsIcEENS_9allocatorIcEEEENS_6vectorI9JsonValueNS5_IS9_EEEENS_3mapIS7_S9_NS_4lessIS7_EENS5_INS_4pairIKS7_S9_EEEEEEEECI1NS0_6__baseILNS0_6_TraitE1EJDnbdS7_SB_SJ_EEEILm2EJdEEENS_16in_place_index_tIXT_EEEDpOT0_, symObjAddr: 0xC880, symBinAddr: 0x10000CE68, symSize: 0x34 }
  - { offset: 0x1D4F7, size: 0x8, addend: 0x0, symName: __ZNSt3__116__variant_detail6__implIJDnbdNS_12basic_stringIcNS_11char_traitsIcEENS_9allocatorIcEEEENS_6vectorI9JsonValueNS5_IS9_EEEENS_3mapIS7_S9_NS_4lessIS7_EENS5_INS_4pairIKS7_S9_EEEEEEEECI2NS0_6__baseILNS0_6_TraitE1EJDnbdS7_SB_SJ_EEEILm2EJdEEENS_16in_place_index_tIXT_EEEDpOT0_, symObjAddr: 0xC8B4, symBinAddr: 0x10000CE9C, symSize: 0x34 }
  - { offset: 0x1D536, size: 0x8, addend: 0x0, symName: __ZNSt3__116__variant_detail17__copy_assignmentINS0_8__traitsIJDnbdNS_12basic_stringIcNS_11char_traitsIcEENS_9allocatorIcEEEENS_6vectorI9JsonValueNS6_ISA_EEEENS_3mapIS8_SA_NS_4lessIS8_EENS6_INS_4pairIKS8_SA_EEEEEEEEELNS0_6_TraitE1EECI2NS0_6__baseILSM_1EJDnbdS8_SC_SK_EEEILm2EJdEEENS_16in_place_index_tIXT_EEEDpOT0_, symObjAddr: 0xC8E8, symBinAddr: 0x10000CED0, symSize: 0x34 }
  - { offset: 0x1D575, size: 0x8, addend: 0x0, symName: __ZNSt3__116__variant_detail17__move_assignmentINS0_8__traitsIJDnbdNS_12basic_stringIcNS_11char_traitsIcEENS_9allocatorIcEEEENS_6vectorI9JsonValueNS6_ISA_EEEENS_3mapIS8_SA_NS_4lessIS8_EENS6_INS_4pairIKS8_SA_EEEEEEEEELNS0_6_TraitE1EECI2NS0_6__baseILSM_1EJDnbdS8_SC_SK_EEEILm2EJdEEENS_16in_place_index_tIXT_EEEDpOT0_, symObjAddr: 0xC91C, symBinAddr: 0x10000CF04, symSize: 0x34 }
  - { offset: 0x1D5B4, size: 0x8, addend: 0x0, symName: __ZNSt3__116__variant_detail12__assignmentINS0_8__traitsIJDnbdNS_12basic_stringIcNS_11char_traitsIcEENS_9allocatorIcEEEENS_6vectorI9JsonValueNS6_ISA_EEEENS_3mapIS8_SA_NS_4lessIS8_EENS6_INS_4pairIKS8_SA_EEEEEEEEEECI2NS0_6__baseILNS0_6_TraitE1EJDnbdS8_SC_SK_EEEILm2EJdEEENS_16in_place_index_tIXT_EEEDpOT0_, symObjAddr: 0xC950, symBinAddr: 0x10000CF38, symSize: 0x34 }
  - { offset: 0x1D5F3, size: 0x8, addend: 0x0, symName: __ZNSt3__116__variant_detail18__copy_constructorINS0_8__traitsIJDnbdNS_12basic_stringIcNS_11char_traitsIcEENS_9allocatorIcEEEENS_6vectorI9JsonValueNS6_ISA_EEEENS_3mapIS8_SA_NS_4lessIS8_EENS6_INS_4pairIKS8_SA_EEEEEEEEELNS0_6_TraitE1EECI2NS0_6__baseILSM_1EJDnbdS8_SC_SK_EEEILm2EJdEEENS_16in_place_index_tIXT_EEEDpOT0_, symObjAddr: 0xC984, symBinAddr: 0x10000CF6C, symSize: 0x34 }
  - { offset: 0x1D632, size: 0x8, addend: 0x0, symName: __ZNSt3__116__variant_detail18__move_constructorINS0_8__traitsIJDnbdNS_12basic_stringIcNS_11char_traitsIcEENS_9allocatorIcEEEENS_6vectorI9JsonValueNS6_ISA_EEEENS_3mapIS8_SA_NS_4lessIS8_EENS6_INS_4pairIKS8_SA_EEEEEEEEELNS0_6_TraitE1EECI2NS0_6__baseILSM_1EJDnbdS8_SC_SK_EEEILm2EJdEEENS_16in_place_index_tIXT_EEEDpOT0_, symObjAddr: 0xC9B8, symBinAddr: 0x10000CFA0, symSize: 0x34 }
  - { offset: 0x1D671, size: 0x8, addend: 0x0, symName: __ZNSt3__116__variant_detail6__ctorINS0_8__traitsIJDnbdNS_12basic_stringIcNS_11char_traitsIcEENS_9allocatorIcEEEENS_6vectorI9JsonValueNS6_ISA_EEEENS_3mapIS8_SA_NS_4lessIS8_EENS6_INS_4pairIKS8_SA_EEEEEEEEEECI2NS0_6__baseILNS0_6_TraitE1EJDnbdS8_SC_SK_EEEILm2EJdEEENS_16in_place_index_tIXT_EEEDpOT0_, symObjAddr: 0xC9EC, symBinAddr: 0x10000CFD4, symSize: 0x34 }
  - { offset: 0x1D6B0, size: 0x8, addend: 0x0, symName: __ZNSt3__116__variant_detail6__dtorINS0_8__traitsIJDnbdNS_12basic_stringIcNS_11char_traitsIcEENS_9allocatorIcEEEENS_6vectorI9JsonValueNS6_ISA_EEEENS_3mapIS8_SA_NS_4lessIS8_EENS6_INS_4pairIKS8_SA_EEEEEEEEELNS0_6_TraitE1EECI2NS0_6__baseILSM_1EJDnbdS8_SC_SK_EEEILm2EJdEEENS_16in_place_index_tIXT_EEEDpOT0_, symObjAddr: 0xCA20, symBinAddr: 0x10000D008, symSize: 0x34 }
  - { offset: 0x1D6EF, size: 0x8, addend: 0x0, symName: __ZNSt3__116__variant_detail6__baseILNS0_6_TraitE1EJDnbdNS_12basic_stringIcNS_11char_traitsIcEENS_9allocatorIcEEEENS_6vectorI9JsonValueNS6_ISA_EEEENS_3mapIS8_SA_NS_4lessIS8_EENS6_INS_4pairIKS8_SA_EEEEEEEEC2B8ne180100ILm2EJdEEENS_16in_place_index_tIXT_EEEDpOT0_, symObjAddr: 0xCA54, symBinAddr: 0x10000D03C, symSize: 0x3C }
  - { offset: 0x1D749, size: 0x8, addend: 0x0, symName: __ZNSt3__116__variant_detail7__unionILNS0_6_TraitE1ELm0EJDnbdNS_12basic_stringIcNS_11char_traitsIcEENS_9allocatorIcEEEENS_6vectorI9JsonValueNS6_ISA_EEEENS_3mapIS8_SA_NS_4lessIS8_EENS6_INS_4pairIKS8_SA_EEEEEEEEC1B8ne180100ILm2EJdEEENS_16in_place_index_tIXT_EEEDpOT0_, symObjAddr: 0xCA90, symBinAddr: 0x10000D078, symSize: 0x34 }
  - { offset: 0x1D7A3, size: 0x8, addend: 0x0, symName: __ZNSt3__116__variant_detail7__unionILNS0_6_TraitE1ELm0EJDnbdNS_12basic_stringIcNS_11char_traitsIcEENS_9allocatorIcEEEENS_6vectorI9JsonValueNS6_ISA_EEEENS_3mapIS8_SA_NS_4lessIS8_EENS6_INS_4pairIKS8_SA_EEEEEEEEC2B8ne180100ILm2EJdEEENS_16in_place_index_tIXT_EEEDpOT0_, symObjAddr: 0xCAC4, symBinAddr: 0x10000D0AC, symSize: 0x34 }
  - { offset: 0x1D7FD, size: 0x8, addend: 0x0, symName: __ZNSt3__116__variant_detail7__unionILNS0_6_TraitE1ELm1EJbdNS_12basic_stringIcNS_11char_traitsIcEENS_9allocatorIcEEEENS_6vectorI9JsonValueNS6_ISA_EEEENS_3mapIS8_SA_NS_4lessIS8_EENS6_INS_4pairIKS8_SA_EEEEEEEEC1B8ne180100ILm1EJdEEENS_16in_place_index_tIXT_EEEDpOT0_, symObjAddr: 0xCAF8, symBinAddr: 0x10000D0E0, symSize: 0x34 }
  - { offset: 0x1D857, size: 0x8, addend: 0x0, symName: __ZNSt3__116__variant_detail7__unionILNS0_6_TraitE1ELm1EJbdNS_12basic_stringIcNS_11char_traitsIcEENS_9allocatorIcEEEENS_6vectorI9JsonValueNS6_ISA_EEEENS_3mapIS8_SA_NS_4lessIS8_EENS6_INS_4pairIKS8_SA_EEEEEEEEC2B8ne180100ILm1EJdEEENS_16in_place_index_tIXT_EEEDpOT0_, symObjAddr: 0xCB2C, symBinAddr: 0x10000D114, symSize: 0x34 }
  - { offset: 0x1D8B1, size: 0x8, addend: 0x0, symName: __ZNSt3__116__variant_detail7__unionILNS0_6_TraitE1ELm2EJdNS_12basic_stringIcNS_11char_traitsIcEENS_9allocatorIcEEEENS_6vectorI9JsonValueNS6_ISA_EEEENS_3mapIS8_SA_NS_4lessIS8_EENS6_INS_4pairIKS8_SA_EEEEEEEEC1B8ne180100IJdEEENS_16in_place_index_tILm0EEEDpOT_, symObjAddr: 0xCB60, symBinAddr: 0x10000D148, symSize: 0x34 }
  - { offset: 0x1D901, size: 0x8, addend: 0x0, symName: __ZNSt3__116__variant_detail7__unionILNS0_6_TraitE1ELm2EJdNS_12basic_stringIcNS_11char_traitsIcEENS_9allocatorIcEEEENS_6vectorI9JsonValueNS6_ISA_EEEENS_3mapIS8_SA_NS_4lessIS8_EENS6_INS_4pairIKS8_SA_EEEEEEEEC2B8ne180100IJdEEENS_16in_place_index_tILm0EEEDpOT_, symObjAddr: 0xCB94, symBinAddr: 0x10000D17C, symSize: 0x34 }
  - { offset: 0x1D951, size: 0x8, addend: 0x0, symName: __ZN9Tokenizer14skipWhitespaceEv, symObjAddr: 0xCBC8, symBinAddr: 0x10000D1B0, symSize: 0x98 }
  - { offset: 0x1D977, size: 0x8, addend: 0x0, symName: __ZNSt3__112basic_stringIcNS_11char_traitsIcEENS_9allocatorIcEEEixB8ne180100Em, symObjAddr: 0xCC60, symBinAddr: 0x10000D248, symSize: 0x48 }
  - { offset: 0x1D9AC, size: 0x8, addend: 0x0, symName: __ZN9Tokenizer11parseStringEv, symObjAddr: 0xCCA8, symBinAddr: 0x10000D290, symSize: 0x198 }
  - { offset: 0x1D9DF, size: 0x8, addend: 0x0, symName: __Z7isdigiti, symObjAddr: 0xCE40, symBinAddr: 0x10000D428, symSize: 0x28 }
  - { offset: 0x1DA0C, size: 0x8, addend: 0x0, symName: __ZN9Tokenizer11parseNumberEv, symObjAddr: 0xCE68, symBinAddr: 0x10000D450, symSize: 0x12C }
  - { offset: 0x1DA40, size: 0x8, addend: 0x0, symName: __ZNSt3__112basic_stringIcNS_11char_traitsIcEENS_9allocatorIcEEEC1B8ne180100Emc, symObjAddr: 0xCFD8, symBinAddr: 0x10000D5C0, symSize: 0x3C }
  - { offset: 0x1DA87, size: 0x8, addend: 0x0, symName: __Z7isspacei, symObjAddr: 0xD014, symBinAddr: 0x10000D5FC, symSize: 0x28 }
  - { offset: 0x1DAB5, size: 0x8, addend: 0x0, symName: __Z8__istypeim, symObjAddr: 0xD03C, symBinAddr: 0x10000D624, symSize: 0x84 }
  - { offset: 0x1DAEF, size: 0x8, addend: 0x0, symName: __Z7isasciii, symObjAddr: 0xD0C0, symBinAddr: 0x10000D6A8, symSize: 0x24 }
  - { offset: 0x1DB1C, size: 0x8, addend: 0x0, symName: __ZNSt3__112basic_stringIcNS_11char_traitsIcEENS_9allocatorIcEEE13__fits_in_ssoB8ne180100Em, symObjAddr: 0xD0E4, symBinAddr: 0x10000D6CC, symSize: 0x20 }
  - { offset: 0x1DB40, size: 0x8, addend: 0x0, symName: __ZNSt3__112basic_stringIcNS_11char_traitsIcEENS_9allocatorIcEEE18__get_long_pointerB8ne180100Ev, symObjAddr: 0xD104, symBinAddr: 0x10000D6EC, symSize: 0x28 }
  - { offset: 0x1DB66, size: 0x8, addend: 0x0, symName: __ZNSt3__112basic_stringIcNS_11char_traitsIcEENS_9allocatorIcEEE13__get_pointerB8ne180100Ev, symObjAddr: 0xD12C, symBinAddr: 0x10000D714, symSize: 0x54 }
  - { offset: 0x1DB8C, size: 0x8, addend: 0x0, symName: __ZNSt3__112basic_stringIcNS_11char_traitsIcEENS_9allocatorIcEEE19__get_short_pointerB8ne180100Ev, symObjAddr: 0xD180, symBinAddr: 0x10000D768, symSize: 0x28 }
  - { offset: 0x1DBB2, size: 0x8, addend: 0x0, symName: __ZNSt3__114pointer_traitsIPcE10pointer_toB8ne180100ERc, symObjAddr: 0xD1A8, symBinAddr: 0x10000D790, symSize: 0x14 }
  - { offset: 0x1DBD5, size: 0x8, addend: 0x0, symName: __ZNSt3__112basic_stringIcNS_11char_traitsIcEENS_9allocatorIcEEEC1B8ne180100Ev, symObjAddr: 0xD1BC, symBinAddr: 0x10000D7A4, symSize: 0x2C }
  - { offset: 0x1DBFF, size: 0x8, addend: 0x0, symName: __ZNSt3__112basic_stringIcNS_11char_traitsIcEENS_9allocatorIcEEEpLB8ne180100Ec, symObjAddr: 0xD1E8, symBinAddr: 0x10000D7D0, symSize: 0x34 }
  - { offset: 0x1DC34, size: 0x8, addend: 0x0, symName: __ZNSt3__112basic_stringIcNS_11char_traitsIcEENS_9allocatorIcEEEC2B8ne180100Ev, symObjAddr: 0xD21C, symBinAddr: 0x10000D804, symSize: 0x48 }
  - { offset: 0x1DC64, size: 0x8, addend: 0x0, symName: __ZNSt3__117__compressed_pairINS_12basic_stringIcNS_11char_traitsIcEENS_9allocatorIcEEE5__repES5_EC1B8ne180100INS_16__value_init_tagENS_18__default_init_tagEEEOT_OT0_, symObjAddr: 0xD264, symBinAddr: 0x10000D84C, symSize: 0x3C }
  - { offset: 0x1DCBC, size: 0x8, addend: 0x0, symName: __ZNSt3__117__compressed_pairINS_12basic_stringIcNS_11char_traitsIcEENS_9allocatorIcEEE5__repES5_EC2B8ne180100INS_16__value_init_tagENS_18__default_init_tagEEEOT_OT0_, symObjAddr: 0xD2A0, symBinAddr: 0x10000D888, symSize: 0x3C }
  - { offset: 0x1DD14, size: 0x8, addend: 0x0, symName: __ZNSt3__122__compressed_pair_elemINS_12basic_stringIcNS_11char_traitsIcEENS_9allocatorIcEEE5__repELi0ELb0EEC2B8ne180100ENS_16__value_init_tagE, symObjAddr: 0xD2DC, symBinAddr: 0x10000D8C4, symSize: 0x20 }
  - { offset: 0x1DD48, size: 0x8, addend: 0x0, symName: __ZNSt3__122__compressed_pair_elemINS_9allocatorIcEELi1ELb1EEC2B8ne180100ENS_18__default_init_tagE, symObjAddr: 0xD2FC, symBinAddr: 0x10000D8E4, symSize: 0x2C }
  - { offset: 0x1DD7C, size: 0x8, addend: 0x0, symName: __ZNSt3__19allocatorIcEC2B8ne180100Ev, symObjAddr: 0xD328, symBinAddr: 0x10000D910, symSize: 0x2C }
  - { offset: 0x1DDA6, size: 0x8, addend: 0x0, symName: __ZNSt3__116__non_trivial_ifILb1ENS_9allocatorIcEEEC2B8ne180100Ev, symObjAddr: 0xD354, symBinAddr: 0x10000D93C, symSize: 0x14 }
  - { offset: 0x1DDCF, size: 0x8, addend: 0x0, symName: __Z9__isctypeim, symObjAddr: 0xD368, symBinAddr: 0x10000D950, symSize: 0x78 }
  - { offset: 0x1DE0A, size: 0x8, addend: 0x0, symName: __ZNKSt3__112basic_stringIcNS_11char_traitsIcEENS_9allocatorIcEEE6substrB8ne180100Emm, symObjAddr: 0xD3E0, symBinAddr: 0x10000D9C8, symSize: 0x68 }
  - { offset: 0x1DE4E, size: 0x8, addend: 0x0, symName: __ZNSt3__19allocatorIcEC1B8ne180100Ev, symObjAddr: 0xD448, symBinAddr: 0x10000DA30, symSize: 0x2C }
  - { offset: 0x1DE78, size: 0x8, addend: 0x0, symName: __ZNSt3__112basic_stringIcNS_11char_traitsIcEENS_9allocatorIcEEEC2B8ne180100Emc, symObjAddr: 0xD474, symBinAddr: 0x10000DA5C, symSize: 0x4C }
  - { offset: 0x1DEC0, size: 0x8, addend: 0x0, symName: __ZNSt3__117__compressed_pairINS_12basic_stringIcNS_11char_traitsIcEENS_9allocatorIcEEE5__repES5_EC1B8ne180100INS_18__default_init_tagESA_EEOT_OT0_, symObjAddr: 0xD4C0, symBinAddr: 0x10000DAA8, symSize: 0x3C }
  - { offset: 0x1DF18, size: 0x8, addend: 0x0, symName: __ZNSt3__117__compressed_pairINS_12basic_stringIcNS_11char_traitsIcEENS_9allocatorIcEEE5__repES5_EC2B8ne180100INS_18__default_init_tagESA_EEOT_OT0_, symObjAddr: 0xD4FC, symBinAddr: 0x10000DAE4, symSize: 0x3C }
  - { offset: 0x1DF70, size: 0x8, addend: 0x0, symName: __ZNSt3__122__compressed_pair_elemINS_12basic_stringIcNS_11char_traitsIcEENS_9allocatorIcEEE5__repELi0ELb0EEC2B8ne180100ENS_18__default_init_tagE, symObjAddr: 0xD538, symBinAddr: 0x10000DB20, symSize: 0x14 }
  - { offset: 0x1DFA4, size: 0x8, addend: 0x0, symName: __ZN5TokenD2Ev, symObjAddr: 0xD54C, symBinAddr: 0x10000DB34, symSize: 0x30 }
  - { offset: 0x1DFD0, size: 0x8, addend: 0x0, symName: __ZN9JsonValueCI2NSt3__17variantIJDnbdNS0_12basic_stringIcNS0_11char_traitsIcEENS0_9allocatorIcEEEENS0_6vectorIS_NS5_IS_EEEENS0_3mapIS7_S_NS0_4lessIS7_EENS5_INS0_4pairIKS7_S_EEEEEEEEEIbLi0ELi0ELi0EbLm1ELi0EEEOT_, symObjAddr: 0xD57C, symBinAddr: 0x10000DB64, symSize: 0x34 }
  - { offset: 0x1E005, size: 0x8, addend: 0x0, symName: __ZNSt3__17variantIJDnbdNS_12basic_stringIcNS_11char_traitsIcEENS_9allocatorIcEEEENS_6vectorI9JsonValueNS4_IS8_EEEENS_3mapIS6_S8_NS_4lessIS6_EENS4_INS_4pairIKS6_S8_EEEEEEEEC2B8ne180100IbLi0ELi0ELi0EbLm1ELi0EEEOT_, symObjAddr: 0xD5B0, symBinAddr: 0x10000DB98, symSize: 0x3C }
  - { offset: 0x1E072, size: 0x8, addend: 0x0, symName: __ZNSt3__116__variant_detail6__implIJDnbdNS_12basic_stringIcNS_11char_traitsIcEENS_9allocatorIcEEEENS_6vectorI9JsonValueNS5_IS9_EEEENS_3mapIS7_S9_NS_4lessIS7_EENS5_INS_4pairIKS7_S9_EEEEEEEECI1NS0_6__baseILNS0_6_TraitE1EJDnbdS7_SB_SJ_EEEILm1EJbEEENS_16in_place_index_tIXT_EEEDpOT0_, symObjAddr: 0xD5EC, symBinAddr: 0x10000DBD4, symSize: 0x34 }
  - { offset: 0x1E0B1, size: 0x8, addend: 0x0, symName: __ZNSt3__116__variant_detail6__implIJDnbdNS_12basic_stringIcNS_11char_traitsIcEENS_9allocatorIcEEEENS_6vectorI9JsonValueNS5_IS9_EEEENS_3mapIS7_S9_NS_4lessIS7_EENS5_INS_4pairIKS7_S9_EEEEEEEECI2NS0_6__baseILNS0_6_TraitE1EJDnbdS7_SB_SJ_EEEILm1EJbEEENS_16in_place_index_tIXT_EEEDpOT0_, symObjAddr: 0xD620, symBinAddr: 0x10000DC08, symSize: 0x34 }
  - { offset: 0x1E0F0, size: 0x8, addend: 0x0, symName: __ZNSt3__116__variant_detail17__copy_assignmentINS0_8__traitsIJDnbdNS_12basic_stringIcNS_11char_traitsIcEENS_9allocatorIcEEEENS_6vectorI9JsonValueNS6_ISA_EEEENS_3mapIS8_SA_NS_4lessIS8_EENS6_INS_4pairIKS8_SA_EEEEEEEEELNS0_6_TraitE1EECI2NS0_6__baseILSM_1EJDnbdS8_SC_SK_EEEILm1EJbEEENS_16in_place_index_tIXT_EEEDpOT0_, symObjAddr: 0xD654, symBinAddr: 0x10000DC3C, symSize: 0x34 }
  - { offset: 0x1E12F, size: 0x8, addend: 0x0, symName: __ZNSt3__116__variant_detail17__move_assignmentINS0_8__traitsIJDnbdNS_12basic_stringIcNS_11char_traitsIcEENS_9allocatorIcEEEENS_6vectorI9JsonValueNS6_ISA_EEEENS_3mapIS8_SA_NS_4lessIS8_EENS6_INS_4pairIKS8_SA_EEEEEEEEELNS0_6_TraitE1EECI2NS0_6__baseILSM_1EJDnbdS8_SC_SK_EEEILm1EJbEEENS_16in_place_index_tIXT_EEEDpOT0_, symObjAddr: 0xD688, symBinAddr: 0x10000DC70, symSize: 0x34 }
  - { offset: 0x1E16E, size: 0x8, addend: 0x0, symName: __ZNSt3__116__variant_detail12__assignmentINS0_8__traitsIJDnbdNS_12basic_stringIcNS_11char_traitsIcEENS_9allocatorIcEEEENS_6vectorI9JsonValueNS6_ISA_EEEENS_3mapIS8_SA_NS_4lessIS8_EENS6_INS_4pairIKS8_SA_EEEEEEEEEECI2NS0_6__baseILNS0_6_TraitE1EJDnbdS8_SC_SK_EEEILm1EJbEEENS_16in_place_index_tIXT_EEEDpOT0_, symObjAddr: 0xD6BC, symBinAddr: 0x10000DCA4, symSize: 0x34 }
  - { offset: 0x1E1AD, size: 0x8, addend: 0x0, symName: __ZNSt3__116__variant_detail18__copy_constructorINS0_8__traitsIJDnbdNS_12basic_stringIcNS_11char_traitsIcEENS_9allocatorIcEEEENS_6vectorI9JsonValueNS6_ISA_EEEENS_3mapIS8_SA_NS_4lessIS8_EENS6_INS_4pairIKS8_SA_EEEEEEEEELNS0_6_TraitE1EECI2NS0_6__baseILSM_1EJDnbdS8_SC_SK_EEEILm1EJbEEENS_16in_place_index_tIXT_EEEDpOT0_, symObjAddr: 0xD6F0, symBinAddr: 0x10000DCD8, symSize: 0x34 }
  - { offset: 0x1E1EC, size: 0x8, addend: 0x0, symName: __ZNSt3__116__variant_detail18__move_constructorINS0_8__traitsIJDnbdNS_12basic_stringIcNS_11char_traitsIcEENS_9allocatorIcEEEENS_6vectorI9JsonValueNS6_ISA_EEEENS_3mapIS8_SA_NS_4lessIS8_EENS6_INS_4pairIKS8_SA_EEEEEEEEELNS0_6_TraitE1EECI2NS0_6__baseILSM_1EJDnbdS8_SC_SK_EEEILm1EJbEEENS_16in_place_index_tIXT_EEEDpOT0_, symObjAddr: 0xD724, symBinAddr: 0x10000DD0C, symSize: 0x34 }
  - { offset: 0x1E22B, size: 0x8, addend: 0x0, symName: __ZNSt3__116__variant_detail6__ctorINS0_8__traitsIJDnbdNS_12basic_stringIcNS_11char_traitsIcEENS_9allocatorIcEEEENS_6vectorI9JsonValueNS6_ISA_EEEENS_3mapIS8_SA_NS_4lessIS8_EENS6_INS_4pairIKS8_SA_EEEEEEEEEECI2NS0_6__baseILNS0_6_TraitE1EJDnbdS8_SC_SK_EEEILm1EJbEEENS_16in_place_index_tIXT_EEEDpOT0_, symObjAddr: 0xD758, symBinAddr: 0x10000DD40, symSize: 0x34 }
  - { offset: 0x1E26A, size: 0x8, addend: 0x0, symName: __ZNSt3__116__variant_detail6__dtorINS0_8__traitsIJDnbdNS_12basic_stringIcNS_11char_traitsIcEENS_9allocatorIcEEEENS_6vectorI9JsonValueNS6_ISA_EEEENS_3mapIS8_SA_NS_4lessIS8_EENS6_INS_4pairIKS8_SA_EEEEEEEEELNS0_6_TraitE1EECI2NS0_6__baseILSM_1EJDnbdS8_SC_SK_EEEILm1EJbEEENS_16in_place_index_tIXT_EEEDpOT0_, symObjAddr: 0xD78C, symBinAddr: 0x10000DD74, symSize: 0x34 }
  - { offset: 0x1E2A9, size: 0x8, addend: 0x0, symName: __ZNSt3__116__variant_detail6__baseILNS0_6_TraitE1EJDnbdNS_12basic_stringIcNS_11char_traitsIcEENS_9allocatorIcEEEENS_6vectorI9JsonValueNS6_ISA_EEEENS_3mapIS8_SA_NS_4lessIS8_EENS6_INS_4pairIKS8_SA_EEEEEEEEC2B8ne180100ILm1EJbEEENS_16in_place_index_tIXT_EEEDpOT0_, symObjAddr: 0xD7C0, symBinAddr: 0x10000DDA8, symSize: 0x3C }
  - { offset: 0x1E303, size: 0x8, addend: 0x0, symName: __ZNSt3__116__variant_detail7__unionILNS0_6_TraitE1ELm0EJDnbdNS_12basic_stringIcNS_11char_traitsIcEENS_9allocatorIcEEEENS_6vectorI9JsonValueNS6_ISA_EEEENS_3mapIS8_SA_NS_4lessIS8_EENS6_INS_4pairIKS8_SA_EEEEEEEEC1B8ne180100ILm1EJbEEENS_16in_place_index_tIXT_EEEDpOT0_, symObjAddr: 0xD7FC, symBinAddr: 0x10000DDE4, symSize: 0x34 }
  - { offset: 0x1E35D, size: 0x8, addend: 0x0, symName: __ZNSt3__116__variant_detail7__unionILNS0_6_TraitE1ELm0EJDnbdNS_12basic_stringIcNS_11char_traitsIcEENS_9allocatorIcEEEENS_6vectorI9JsonValueNS6_ISA_EEEENS_3mapIS8_SA_NS_4lessIS8_EENS6_INS_4pairIKS8_SA_EEEEEEEEC2B8ne180100ILm1EJbEEENS_16in_place_index_tIXT_EEEDpOT0_, symObjAddr: 0xD830, symBinAddr: 0x10000DE18, symSize: 0x34 }
  - { offset: 0x1E3B7, size: 0x8, addend: 0x0, symName: __ZNSt3__116__variant_detail7__unionILNS0_6_TraitE1ELm1EJbdNS_12basic_stringIcNS_11char_traitsIcEENS_9allocatorIcEEEENS_6vectorI9JsonValueNS6_ISA_EEEENS_3mapIS8_SA_NS_4lessIS8_EENS6_INS_4pairIKS8_SA_EEEEEEEEC1B8ne180100IJbEEENS_16in_place_index_tILm0EEEDpOT_, symObjAddr: 0xD864, symBinAddr: 0x10000DE4C, symSize: 0x34 }
  - { offset: 0x1E407, size: 0x8, addend: 0x0, symName: __ZNSt3__116__variant_detail7__unionILNS0_6_TraitE1ELm1EJbdNS_12basic_stringIcNS_11char_traitsIcEENS_9allocatorIcEEEENS_6vectorI9JsonValueNS6_ISA_EEEENS_3mapIS8_SA_NS_4lessIS8_EENS6_INS_4pairIKS8_SA_EEEEEEEEC2B8ne180100IJbEEENS_16in_place_index_tILm0EEEDpOT_, symObjAddr: 0xD898, symBinAddr: 0x10000DE80, symSize: 0x34 }
  - { offset: 0x1E457, size: 0x8, addend: 0x0, symName: __ZN9JsonValueC2Ev, symObjAddr: 0xD8CC, symBinAddr: 0x10000DEB4, symSize: 0x2C }
  - { offset: 0x1E483, size: 0x8, addend: 0x0, symName: __ZNSt3__17variantIJDnbdNS_12basic_stringIcNS_11char_traitsIcEENS_9allocatorIcEEEENS_6vectorI9JsonValueNS4_IS8_EEEENS_3mapIS6_S8_NS_4lessIS6_EENS4_INS_4pairIKS6_S8_EEEEEEEEC2B8ne180100ILb1ELi0EEEv, symObjAddr: 0xD8F8, symBinAddr: 0x10000DEE0, symSize: 0x34 }
  - { offset: 0x1E4BD, size: 0x8, addend: 0x0, symName: __ZNSt3__116__variant_detail6__implIJDnbdNS_12basic_stringIcNS_11char_traitsIcEENS_9allocatorIcEEEENS_6vectorI9JsonValueNS5_IS9_EEEENS_3mapIS7_S9_NS_4lessIS7_EENS5_INS_4pairIKS7_S9_EEEEEEEECI1NS0_6__baseILNS0_6_TraitE1EJDnbdS7_SB_SJ_EEEILm0EJEEENS_16in_place_index_tIXT_EEEDpOT0_, symObjAddr: 0xD92C, symBinAddr: 0x10000DF14, symSize: 0x2C }
  - { offset: 0x1E4F3, size: 0x8, addend: 0x0, symName: __ZNSt3__116__variant_detail6__implIJDnbdNS_12basic_stringIcNS_11char_traitsIcEENS_9allocatorIcEEEENS_6vectorI9JsonValueNS5_IS9_EEEENS_3mapIS7_S9_NS_4lessIS7_EENS5_INS_4pairIKS7_S9_EEEEEEEECI2NS0_6__baseILNS0_6_TraitE1EJDnbdS7_SB_SJ_EEEILm0EJEEENS_16in_place_index_tIXT_EEEDpOT0_, symObjAddr: 0xD958, symBinAddr: 0x10000DF40, symSize: 0x2C }
  - { offset: 0x1E529, size: 0x8, addend: 0x0, symName: __ZNSt3__116__variant_detail17__copy_assignmentINS0_8__traitsIJDnbdNS_12basic_stringIcNS_11char_traitsIcEENS_9allocatorIcEEEENS_6vectorI9JsonValueNS6_ISA_EEEENS_3mapIS8_SA_NS_4lessIS8_EENS6_INS_4pairIKS8_SA_EEEEEEEEELNS0_6_TraitE1EECI2NS0_6__baseILSM_1EJDnbdS8_SC_SK_EEEILm0EJEEENS_16in_place_index_tIXT_EEEDpOT0_, symObjAddr: 0xD984, symBinAddr: 0x10000DF6C, symSize: 0x2C }
  - { offset: 0x1E55F, size: 0x8, addend: 0x0, symName: __ZNSt3__116__variant_detail17__move_assignmentINS0_8__traitsIJDnbdNS_12basic_stringIcNS_11char_traitsIcEENS_9allocatorIcEEEENS_6vectorI9JsonValueNS6_ISA_EEEENS_3mapIS8_SA_NS_4lessIS8_EENS6_INS_4pairIKS8_SA_EEEEEEEEELNS0_6_TraitE1EECI2NS0_6__baseILSM_1EJDnbdS8_SC_SK_EEEILm0EJEEENS_16in_place_index_tIXT_EEEDpOT0_, symObjAddr: 0xD9B0, symBinAddr: 0x10000DF98, symSize: 0x2C }
  - { offset: 0x1E595, size: 0x8, addend: 0x0, symName: __ZNSt3__116__variant_detail12__assignmentINS0_8__traitsIJDnbdNS_12basic_stringIcNS_11char_traitsIcEENS_9allocatorIcEEEENS_6vectorI9JsonValueNS6_ISA_EEEENS_3mapIS8_SA_NS_4lessIS8_EENS6_INS_4pairIKS8_SA_EEEEEEEEEECI2NS0_6__baseILNS0_6_TraitE1EJDnbdS8_SC_SK_EEEILm0EJEEENS_16in_place_index_tIXT_EEEDpOT0_, symObjAddr: 0xD9DC, symBinAddr: 0x10000DFC4, symSize: 0x2C }
  - { offset: 0x1E5CB, size: 0x8, addend: 0x0, symName: __ZNSt3__116__variant_detail18__copy_constructorINS0_8__traitsIJDnbdNS_12basic_stringIcNS_11char_traitsIcEENS_9allocatorIcEEEENS_6vectorI9JsonValueNS6_ISA_EEEENS_3mapIS8_SA_NS_4lessIS8_EENS6_INS_4pairIKS8_SA_EEEEEEEEELNS0_6_TraitE1EECI2NS0_6__baseILSM_1EJDnbdS8_SC_SK_EEEILm0EJEEENS_16in_place_index_tIXT_EEEDpOT0_, symObjAddr: 0xDA08, symBinAddr: 0x10000DFF0, symSize: 0x2C }
  - { offset: 0x1E601, size: 0x8, addend: 0x0, symName: __ZNSt3__116__variant_detail18__move_constructorINS0_8__traitsIJDnbdNS_12basic_stringIcNS_11char_traitsIcEENS_9allocatorIcEEEENS_6vectorI9JsonValueNS6_ISA_EEEENS_3mapIS8_SA_NS_4lessIS8_EENS6_INS_4pairIKS8_SA_EEEEEEEEELNS0_6_TraitE1EECI2NS0_6__baseILSM_1EJDnbdS8_SC_SK_EEEILm0EJEEENS_16in_place_index_tIXT_EEEDpOT0_, symObjAddr: 0xDA34, symBinAddr: 0x10000E01C, symSize: 0x2C }
  - { offset: 0x1E637, size: 0x8, addend: 0x0, symName: __ZNSt3__116__variant_detail6__ctorINS0_8__traitsIJDnbdNS_12basic_stringIcNS_11char_traitsIcEENS_9allocatorIcEEEENS_6vectorI9JsonValueNS6_ISA_EEEENS_3mapIS8_SA_NS_4lessIS8_EENS6_INS_4pairIKS8_SA_EEEEEEEEEECI2NS0_6__baseILNS0_6_TraitE1EJDnbdS8_SC_SK_EEEILm0EJEEENS_16in_place_index_tIXT_EEEDpOT0_, symObjAddr: 0xDA60, symBinAddr: 0x10000E048, symSize: 0x2C }
  - { offset: 0x1E66D, size: 0x8, addend: 0x0, symName: __ZNSt3__116__variant_detail6__dtorINS0_8__traitsIJDnbdNS_12basic_stringIcNS_11char_traitsIcEENS_9allocatorIcEEEENS_6vectorI9JsonValueNS6_ISA_EEEENS_3mapIS8_SA_NS_4lessIS8_EENS6_INS_4pairIKS8_SA_EEEEEEEEELNS0_6_TraitE1EECI2NS0_6__baseILSM_1EJDnbdS8_SC_SK_EEEILm0EJEEENS_16in_place_index_tIXT_EEEDpOT0_, symObjAddr: 0xDA8C, symBinAddr: 0x10000E074, symSize: 0x2C }
  - { offset: 0x1E6A3, size: 0x8, addend: 0x0, symName: __ZNSt3__116__variant_detail6__baseILNS0_6_TraitE1EJDnbdNS_12basic_stringIcNS_11char_traitsIcEENS_9allocatorIcEEEENS_6vectorI9JsonValueNS6_ISA_EEEENS_3mapIS8_SA_NS_4lessIS8_EENS6_INS_4pairIKS8_SA_EEEEEEEEC2B8ne180100ILm0EJEEENS_16in_place_index_tIXT_EEEDpOT0_, symObjAddr: 0xDAB8, symBinAddr: 0x10000E0A0, symSize: 0x30 }
  - { offset: 0x1E6E8, size: 0x8, addend: 0x0, symName: __ZNSt3__116__variant_detail7__unionILNS0_6_TraitE1ELm0EJDnbdNS_12basic_stringIcNS_11char_traitsIcEENS_9allocatorIcEEEENS_6vectorI9JsonValueNS6_ISA_EEEENS_3mapIS8_SA_NS_4lessIS8_EENS6_INS_4pairIKS8_SA_EEEEEEEEC1B8ne180100IJEEENS_16in_place_index_tILm0EEEDpOT_, symObjAddr: 0xDAE8, symBinAddr: 0x10000E0D0, symSize: 0x2C }
  - { offset: 0x1E723, size: 0x8, addend: 0x0, symName: __ZNSt3__116__variant_detail7__unionILNS0_6_TraitE1ELm0EJDnbdNS_12basic_stringIcNS_11char_traitsIcEENS_9allocatorIcEEEENS_6vectorI9JsonValueNS6_ISA_EEEENS_3mapIS8_SA_NS_4lessIS8_EENS6_INS_4pairIKS8_SA_EEEEEEEEC2B8ne180100IJEEENS_16in_place_index_tILm0EEEDpOT_, symObjAddr: 0xDB14, symBinAddr: 0x10000E0FC, symSize: 0x2C }
  - { offset: 0x1E75E, size: 0x8, addend: 0x0, symName: __ZNSt3__116__variant_detail5__altILm0EDnEC1B8ne180100IJEEENS_10in_place_tEDpOT_, symObjAddr: 0xDB40, symBinAddr: 0x10000E128, symSize: 0x2C }
  - { offset: 0x1E799, size: 0x8, addend: 0x0, symName: __ZNSt3__116__variant_detail5__altILm0EDnEC2B8ne180100IJEEENS_10in_place_tEDpOT_, symObjAddr: 0xDB6C, symBinAddr: 0x10000E154, symSize: 0x18 }
  - { offset: 0x1E7D4, size: 0x8, addend: 0x0, symName: __ZN9JsonValueD2Ev, symObjAddr: 0xDB84, symBinAddr: 0x10000E16C, symSize: 0x2C }
  - { offset: 0x1E800, size: 0x8, addend: 0x0, symName: __ZNSt3__17variantIJDnbdNS_12basic_stringIcNS_11char_traitsIcEENS_9allocatorIcEEEENS_6vectorI9JsonValueNS4_IS8_EEEENS_3mapIS6_S8_NS_4lessIS6_EENS4_INS_4pairIKS6_S8_EEEEEEEED2B8ne180100Ev, symObjAddr: 0xDBB0, symBinAddr: 0x10000E198, symSize: 0x2C }
  - { offset: 0x1E82A, size: 0x8, addend: 0x0, symName: __ZNSt3__116__variant_detail6__implIJDnbdNS_12basic_stringIcNS_11char_traitsIcEENS_9allocatorIcEEEENS_6vectorI9JsonValueNS5_IS9_EEEENS_3mapIS7_S9_NS_4lessIS7_EENS5_INS_4pairIKS7_S9_EEEEEEEED1Ev, symObjAddr: 0xDBDC, symBinAddr: 0x10000E1C4, symSize: 0x2C }
  - { offset: 0x1E857, size: 0x8, addend: 0x0, symName: __ZNSt3__116__variant_detail6__implIJDnbdNS_12basic_stringIcNS_11char_traitsIcEENS_9allocatorIcEEEENS_6vectorI9JsonValueNS5_IS9_EEEENS_3mapIS7_S9_NS_4lessIS7_EENS5_INS_4pairIKS7_S9_EEEEEEEED2Ev, symObjAddr: 0xDC08, symBinAddr: 0x10000E1F0, symSize: 0x2C }
  - { offset: 0x1E884, size: 0x8, addend: 0x0, symName: __ZNSt3__116__variant_detail17__copy_assignmentINS0_8__traitsIJDnbdNS_12basic_stringIcNS_11char_traitsIcEENS_9allocatorIcEEEENS_6vectorI9JsonValueNS6_ISA_EEEENS_3mapIS8_SA_NS_4lessIS8_EENS6_INS_4pairIKS8_SA_EEEEEEEEELNS0_6_TraitE1EED2Ev, symObjAddr: 0xDC34, symBinAddr: 0x10000E21C, symSize: 0x2C }
  - { offset: 0x1E8AE, size: 0x8, addend: 0x0, symName: __ZNSt3__116__variant_detail17__move_assignmentINS0_8__traitsIJDnbdNS_12basic_stringIcNS_11char_traitsIcEENS_9allocatorIcEEEENS_6vectorI9JsonValueNS6_ISA_EEEENS_3mapIS8_SA_NS_4lessIS8_EENS6_INS_4pairIKS8_SA_EEEEEEEEELNS0_6_TraitE1EED2Ev, symObjAddr: 0xDC60, symBinAddr: 0x10000E248, symSize: 0x2C }
  - { offset: 0x1E8D8, size: 0x8, addend: 0x0, symName: __ZNSt3__116__variant_detail12__assignmentINS0_8__traitsIJDnbdNS_12basic_stringIcNS_11char_traitsIcEENS_9allocatorIcEEEENS_6vectorI9JsonValueNS6_ISA_EEEENS_3mapIS8_SA_NS_4lessIS8_EENS6_INS_4pairIKS8_SA_EEEEEEEEEED2Ev, symObjAddr: 0xDC8C, symBinAddr: 0x10000E274, symSize: 0x2C }
  - { offset: 0x1E905, size: 0x8, addend: 0x0, symName: __ZN10JsonParserD2Ev, symObjAddr: 0xDCB8, symBinAddr: 0x10000E2A0, symSize: 0x2C }
  - { offset: 0x1E931, size: 0x8, addend: 0x0, symName: __ZN9TokenizerD1Ev, symObjAddr: 0xDCE4, symBinAddr: 0x10000E2CC, symSize: 0x2C }
  - { offset: 0x1E95D, size: 0x8, addend: 0x0, symName: __ZN9TokenizerD2Ev, symObjAddr: 0xDD10, symBinAddr: 0x10000E2F8, symSize: 0x2C }
  - { offset: 0x1E989, size: 0x8, addend: 0x0, symName: __ZNSt3__112basic_stringIcNS_11char_traitsIcEENS_9allocatorIcEEEC2B8ne180100ILi0EEEPKc, symObjAddr: 0xDD3C, symBinAddr: 0x10000E324, symSize: 0x58 }
  - { offset: 0x1E9C8, size: 0x8, addend: 0x0, symName: __ZNSt3__111char_traitsIcE6lengthB8ne180100EPKc, symObjAddr: 0xDD94, symBinAddr: 0x10000E37C, symSize: 0x34 }
  - { offset: 0x1EA0E, size: 0x8, addend: 0x0, symName: __ZNKSt3__113basic_ostreamIcNS_11char_traitsIcEEE6sentrycvbB8ne180100Ev, symObjAddr: 0xDFD8, symBinAddr: 0x10000E5C0, symSize: 0x1C }
  - { offset: 0x1EA34, size: 0x8, addend: 0x0, symName: __ZNSt3__119ostreambuf_iteratorIcNS_11char_traitsIcEEEC1B8ne180100ERNS_13basic_ostreamIcS2_EE, symObjAddr: 0xE234, symBinAddr: 0x10000E81C, symSize: 0x34 }
  - { offset: 0x1EA6C, size: 0x8, addend: 0x0, symName: __ZNKSt3__18ios_base5flagsB8ne180100Ev, symObjAddr: 0xE268, symBinAddr: 0x10000E850, symSize: 0x18 }
  - { offset: 0x1EA94, size: 0x8, addend: 0x0, symName: __ZNKSt3__19basic_iosIcNS_11char_traitsIcEEE4fillB8ne180100Ev, symObjAddr: 0xE280, symBinAddr: 0x10000E868, symSize: 0x64 }
  - { offset: 0x1EABC, size: 0x8, addend: 0x0, symName: __ZNKSt3__119ostreambuf_iteratorIcNS_11char_traitsIcEEE6failedB8ne180100Ev, symObjAddr: 0xE2E4, symBinAddr: 0x10000E8CC, symSize: 0x24 }
  - { offset: 0x1EAE2, size: 0x8, addend: 0x0, symName: __ZNSt3__19basic_iosIcNS_11char_traitsIcEEE8setstateB8ne180100Ej, symObjAddr: 0xE308, symBinAddr: 0x10000E8F0, symSize: 0x2C }
  - { offset: 0x1EB17, size: 0x8, addend: 0x0, symName: __ZNKSt3__18ios_base5widthB8ne180100Ev, symObjAddr: 0xE334, symBinAddr: 0x10000E91C, symSize: 0x18 }
  - { offset: 0x1EB3F, size: 0x8, addend: 0x0, symName: __ZNSt3__115basic_streambufIcNS_11char_traitsIcEEE5sputnB8ne180100EPKcl, symObjAddr: 0xE34C, symBinAddr: 0x10000E934, symSize: 0x3C }
  - { offset: 0x1EB81, size: 0x8, addend: 0x0, symName: __ZNSt3__112basic_stringIcNS_11char_traitsIcEENS_9allocatorIcEEE4dataB8ne180100Ev, symObjAddr: 0xE388, symBinAddr: 0x10000E970, symSize: 0x28 }
  - { offset: 0x1EBA7, size: 0x8, addend: 0x0, symName: __ZNSt3__18ios_base5widthB8ne180100El, symObjAddr: 0xE3B0, symBinAddr: 0x10000E998, symSize: 0x2C }
  - { offset: 0x1EBED, size: 0x8, addend: 0x0, symName: __ZNSt3__119ostreambuf_iteratorIcNS_11char_traitsIcEEEC2B8ne180100ERNS_13basic_ostreamIcS2_EE, symObjAddr: 0xE3F0, symBinAddr: 0x10000E9D8, symSize: 0x54 }
  - { offset: 0x1EC25, size: 0x8, addend: 0x0, symName: __ZNKSt3__19basic_iosIcNS_11char_traitsIcEEE5rdbufB8ne180100Ev, symObjAddr: 0xE444, symBinAddr: 0x10000EA2C, symSize: 0x24 }
  - { offset: 0x1EC4D, size: 0x8, addend: 0x0, symName: __ZNKSt3__18ios_base5rdbufB8ne180100Ev, symObjAddr: 0xE468, symBinAddr: 0x10000EA50, symSize: 0x18 }
  - { offset: 0x1EC73, size: 0x8, addend: 0x0, symName: __ZNSt3__111char_traitsIcE11eq_int_typeB8ne180100Eii, symObjAddr: 0xE480, symBinAddr: 0x10000EA68, symSize: 0x28 }
  - { offset: 0x1ECA6, size: 0x8, addend: 0x0, symName: __ZNSt3__111char_traitsIcE3eofB8ne180100Ev, symObjAddr: 0xE4A8, symBinAddr: 0x10000EA90, symSize: 0x8 }
  - { offset: 0x1ECBA, size: 0x8, addend: 0x0, symName: __ZNKSt3__19basic_iosIcNS_11char_traitsIcEEE5widenB8ne180100Ec, symObjAddr: 0xE4B0, symBinAddr: 0x10000EA98, symSize: 0x84 }
  - { offset: 0x1ED35, size: 0x8, addend: 0x0, symName: __ZNKSt3__15ctypeIcE5widenB8ne180100Ec, symObjAddr: 0xE560, symBinAddr: 0x10000EB48, symSize: 0x38 }
  - { offset: 0x1ED6A, size: 0x8, addend: 0x0, symName: __ZNSt3__18ios_base8setstateB8ne180100Ej, symObjAddr: 0xE598, symBinAddr: 0x10000EB80, symSize: 0x34 }
...
